(dp1
S'QBP_Q21'
p2
(S'mp'
p3
S'sequence'
p4
g2
((g3
g4
S'MSH'
((g3
S'leaf'
p5
S'MSH_1'
(t(I1
I1
tS'Field'
p6
S'ST'
I1
NS'Field Separator'
t(g3
g5
S'MSH_2'
(t(I1
I1
tg6
S'ST'
I4
NS'Encoding Characters'
t(g3
g4
S'MSH_3'
((g3
g5
S'HD_1'
(t(I1
I1
tp7
S'Component'
p8
S'IS'
I20
S'HL70300'
S'namespace ID'
t(g3
g5
S'HD_2'
(t(I0
I1
tp9
g8
S'ST'
I199
NS'universal ID'
t(g3
g5
S'HD_3'
(tg9
g8
S'ID'
I6
S'HL70301'
S'universal ID type'
tt(I1
I1
tg6
S'HD'
I180
S'HL70361'
S'Sending Application'
t(g3
g4
S'MSH_4'
((g3
g5
S'HD_1'
(tg7
g8
S'IS'
I20
S'HL70300'
S'namespace ID'
t(g3
g5
S'HD_2'
(tg9
g8
S'ST'
I199
NS'universal ID'
t(g3
g5
S'HD_3'
(tg9
g8
S'ID'
I6
S'HL70301'
S'universal ID type'
tt(I1
I1
tg6
S'HD'
I180
S'HL70362'
S'Sending Facility'
t(g3
g4
S'MSH_5'
((g3
g5
S'HD_1'
(tg7
g8
S'IS'
I20
S'HL70300'
S'namespace ID'
t(g3
g5
S'HD_2'
(tg9
g8
S'ST'
I199
NS'universal ID'
t(g3
g5
S'HD_3'
(tg9
g8
S'ID'
I6
S'HL70301'
S'universal ID type'
tt(I1
I1
tg6
S'HD'
I180
S'HL70361'
S'Receiving Application'
t(g3
g4
S'MSH_6'
((g3
g5
S'HD_1'
(tg7
g8
S'IS'
I20
S'HL70300'
S'namespace ID'
t(g3
g5
S'HD_2'
(tg9
g8
S'ST'
I199
NS'universal ID'
t(g3
g5
S'HD_3'
(tg9
g8
S'ID'
I6
S'HL70301'
S'universal ID type'
tt(I1
I1
tg6
S'HD'
I180
S'HL70362'
S'Receiving Facility'
t(g3
g4
S'MSH_7'
((g3
g5
S'TS_1'
(tg7
g8
S'DTM'
I24
NS'time'
t(g3
g5
S'TS_2'
(tg9
g8
S'ST'
I1
S'HL70529'
S'degree of precision'
tt(I1
I1
tg6
S'TS'
I26
NS'Date/Time Of Message'
t(g3
g5
S'MSH_8'
(t(I0
I1
tg6
S'ST'
I40
NS'Security'
t(g3
g4
S'MSH_9'
((g3
g5
S'MSG_1'
(tg7
g8
S'ID'
I3
S'HL70076'
S'message code'
t(g3
g5
S'MSG_2'
(tg7
g8
S'ID'
I3
S'HL70003'
S'trigger event'
t(g3
g5
S'MSG_3'
(tg7
g8
S'ID'
I7
S'HL70354'
S'message structure'
tt(I1
I1
tg6
S'MSG'
I13
NS'Message Type'
t(g3
g5
S'MSH_10'
(t(I1
I1
tg6
S'ST'
I20
NS'Message Control ID'
t(g3
g4
S'MSH_11'
((g3
g5
S'PT_1'
(tg7
g8
S'ID'
I1
S'HL70103'
S'processing ID'
t(g3
g5
S'PT_2'
(tg9
g8
S'ID'
I1
S'HL70207'
S'processing mode'
tt(I1
I1
tg6
S'PT'
I3
NS'Processing ID'
t(g3
g4
S'MSH_12'
((g3
g5
S'VID_1'
(tg7
g8
S'ID'
I5
S'HL70104'
S'version ID'
t(g3
g4
S'VID_2'
((g3
g5
S'CE_1'
(tg9
S'SubComponent'
p10
S'ST'
I20
NS'identifier'
t(g3
g5
S'CE_2'
(tg9
g10
S'ST'
I199
NS'text'
t(g3
g5
S'CE_3'
(tg9
g10
S'ID'
I20
S'HL70396'
S'name of coding system'
t(g3
g5
S'CE_4'
(tg9
g10
S'ST'
I20
NS'alternate identifier'
t(g3
g5
S'CE_5'
(tg9
g10
S'ST'
I199
NS'alternate text'
t(g3
g5
S'CE_6'
(tg9
g10
S'ID'
I20
S'HL70396'
S'name of alternate coding system'
ttg9
g8
S'CE'
I483
S'HL70399'
S'internationalization code'
t(g3
g4
S'VID_3'
((g3
g5
S'CE_1'
(tg9
g10
S'ST'
I20
NS'identifier'
t(g3
g5
S'CE_2'
(tg9
g10
S'ST'
I199
NS'text'
t(g3
g5
S'CE_3'
(tg9
g10
S'ID'
I20
S'HL70396'
S'name of coding system'
t(g3
g5
S'CE_4'
(tg9
g10
S'ST'
I20
NS'alternate identifier'
t(g3
g5
S'CE_5'
(tg9
g10
S'ST'
I199
NS'alternate text'
t(g3
g5
S'CE_6'
(tg9
g10
S'ID'
I20
S'HL70396'
S'name of alternate coding system'
ttg9
g8
S'CE'
I483
NS'international version ID'
tt(I1
I1
tg6
S'VID'
I60
NS'Version ID'
t(g3
g5
S'MSH_13'
(t(I0
I1
tg6
S'NM'
I15
NS'Sequence Number'
t(g3
g5
S'MSH_14'
(t(I0
I1
tg6
S'ST'
I180
NS'Continuation Pointer'
t(g3
g5
S'MSH_15'
(t(I0
I1
tg6
S'ID'
I2
S'HL70155'
S'Accept Acknowledgment Type'
t(g3
g5
S'MSH_16'
(t(I0
I1
tg6
S'ID'
I2
S'HL70155'
S'Application Acknowledgment Type'
t(g3
g5
S'MSH_17'
(t(I0
I1
tg6
S'ID'
I3
S'HL70399'
S'Country Code'
t(g3
g5
S'MSH_18'
(t(I0
I-1
tg6
S'ID'
I16
S'HL70211'
S'Character Set'
t(g3
g4
S'MSH_19'
((g3
g5
S'CE_1'
(tg9
g8
S'ST'
I20
NS'identifier'
t(g3
g5
S'CE_2'
(tg9
g8
S'ST'
I199
NS'text'
t(g3
g5
S'CE_3'
(tg9
g8
S'ID'
I20
S'HL70396'
S'name of coding system'
t(g3
g5
S'CE_4'
(tg9
g8
S'ST'
I20
NS'alternate identifier'
t(g3
g5
S'CE_5'
(tg9
g8
S'ST'
I199
NS'alternate text'
t(g3
g5
S'CE_6'
(tg9
g8
S'ID'
I20
S'HL70396'
S'name of alternate coding system'
tt(I0
I1
tg6
S'CE'
I250
NS'Principal Language Of Message'
t(g3
g5
S'MSH_20'
(t(I0
I1
tg6
S'ID'
I20
S'HL70356'
S'Alternate Character Set Handling Scheme'
t(g3
g4
S'MSH_21'
((g3
g5
S'EI_1'
(tg9
g8
S'ST'
I199
NS'entity identifier'
t(g3
g5
S'EI_2'
(tg9
g8
S'IS'
I20
S'HL70363'
S'namespace ID'
t(g3
g5
S'EI_3'
(tg9
g8
S'ST'
I199
NS'universal ID'
t(g3
g5
S'EI_4'
(tg9
g8
S'ID'
I6
S'HL70301'
S'universal ID type'
tt(I0
I-1
tg6
S'EI'
I427
NS'Message Profile Identifier'
tt(I1
I1
tS'Segment'
p11
t(g3
g4
S'SFT'
((g3
g4
S'SFT_1'
((g3
g5
S'XON_1'
(tg7
g8
S'ST'
I50
NS'organization name'
t(g3
g5
S'XON_2'
(tg9
g8
S'IS'
I20
S'HL70204'
S'organization name type code'
t(g3
g5
S'XON_3'
(tg9
g8
S'NM'
I4
NS'ID number'
t(g3
g5
S'XON_4'
(tg9
g8
S'NM'
I1
NS'check digit'
t(g3
g5
S'XON_5'
(tg9
g8
S'ID'
I3
S'HL70061'
S'check digit scheme'
t(g3
g4
S'XON_6'
((g3
g5
S'HD_1'
(tg9
g10
S'IS'
I20
S'HL70300'
S'namespace ID'
t(g3
g5
S'HD_2'
(tg9
g10
S'ST'
I199
NS'universal ID'
t(g3
g5
S'HD_3'
(tg9
g10
S'ID'
I6
S'HL70301'
S'universal ID type'
ttg9
g8
S'HD'
I227
S'HL70363'
S'assigning authority'
t(g3
g5
S'XON_7'
(tg9
g8
S'ID'
I5
S'HL70203'
S'identifier type code'
t(g3
g4
S'XON_8'
((g3
g5
S'HD_1'
(tg9
g10
S'IS'
I20
S'HL70300'
S'namespace ID'
t(g3
g5
S'HD_2'
(tg9
g10
S'ST'
I199
NS'universal ID'
t(g3
g5
S'HD_3'
(tg9
g10
S'ID'
I6
S'HL70301'
S'universal ID type'
ttg9
g8
S'HD'
I227
NS'assigning facility ID'
t(g3
g5
S'XON_9'
(tg9
g8
S'ID'
I1
S'HL70465'
S'name eepresentation code'
t(g3
g5
S'XON_10'
(tg9
g8
S'ST'
I20
NS'organization identifier'
tt(I1
I1
tg6
S'XON'
I567
NS'Software Vendor Organization'
t(g3
g5
S'SFT_2'
(t(I1
I1
tg6
S'ST'
I15
NS'Software Certified Version or Release Number'
t(g3
g5
S'SFT_3'
(t(I1
I1
tg6
S'ST'
I20
NS'Software Product Name'
t(g3
g5
S'SFT_4'
(t(I1
I1
tg6
S'ST'
I20
NS'Software Binary ID'
t(g3
g5
S'SFT_5'
(t(I0
I1
tg6
S'TX'
I1024
NS'Software Product Information'
t(g3
g4
S'SFT_6'
((g3
g5
S'TS_1'
(tg7
g8
S'DTM'
I24
NS'time'
t(g3
g5
S'TS_2'
(tg9
g8
S'ST'
I1
S'HL70529'
S'degree of precision'
tt(I0
I1
tg6
S'TS'
I26
NS'Software Install Date'
tt(I0
I-1
tg11
t(g3
g4
S'QPD'
((g3
g4
S'QPD_1'
((g3
g5
S'CE_1'
(tg9
g8
S'ST'
I20
NS'identifier'
t(g3
g5
S'CE_2'
(tg9
g8
S'ST'
I199
NS'text'
t(g3
g5
S'CE_3'
(tg9
g8
S'ID'
I20
S'HL70396'
S'name of coding system'
t(g3
g5
S'CE_4'
(tg9
g8
S'ST'
I20
NS'alternate identifier'
t(g3
g5
S'CE_5'
(tg9
g8
S'ST'
I199
NS'alternate text'
t(g3
g5
S'CE_6'
(tg9
g8
S'ID'
I20
S'HL70396'
S'name of alternate coding system'
tt(I1
I1
tg6
S'CE'
I250
S'HL70471'
S'Message Query Name'
t(g3
g5
S'QPD_2'
(t(I1
I1
tg6
S'ST'
I32
NS'Query Tag'
t(g3
g4
S'QPD_3'
((g3
g5
S'QIP_1'
(tg7
g8
S'ST'
I12
NS'segment field name'
t(g3
g5
S'QIP_2'
(tg7
g8
S'ST'
I199
NS'values'
tt(I1
I-1
tg6
S'QIP'
I212
NS'Demographics Fields'
t(g3
g5
S'QPD_4'
(t(I0
I1
tg6
S'NM'
I16
NS'Search Confidence Threshold'
t(g3
g5
S'QPD_5'
(t(I0
I1
tg6
S'ST'
I199
NS'Algorithm Name'
t(g3
g5
S'QPD_6'
(t(I0
I1
tg6
S'ST'
I199
NS'Algorithm Version'
t(g3
g5
S'QPD_7'
(t(I0
I1
tg6
S'ST'
I199
NS'Algorithm Description'
t(g3
g4
S'QPD_8'
((g3
g5
S'CX_1'
(tg9
g8
S'ST'
I15
NS'ID number'
t(g3
g5
S'CX_2'
(tg9
g8
S'ST'
I1
NS'check digit'
t(g3
g5
S'CX_3'
(tg9
g8
S'ID'
I3
S'HL70061'
S'check digit scheme'
t(g3
g4
S'CX_4'
((g3
g5
S'HD_1'
(tg9
g10
S'IS'
I20
S'HL70300'
S'namespace ID'
t(g3
g5
S'HD_2'
(tg9
g10
S'ST'
I199
NS'universal ID'
t(g3
g5
S'HD_3'
(tg9
g10
S'ID'
I6
S'HL70301'
S'universal ID type'
ttg7
g8
S'HD'
I227
S'HL70363'
S'assigning authority'
t(g3
g5
S'CX_5'
(tg9
g8
S'ID'
I5
S'HL70203'
S'identifier type code'
t(g3
g4
S'CX_6'
((g3
g5
S'HD_1'
(tg9
g10
S'IS'
I20
S'HL70300'
S'namespace ID'
t(g3
g5
S'HD_2'
(tg9
g10
S'ST'
I199
NS'universal ID'
t(g3
g5
S'HD_3'
(tg9
g10
S'ID'
I6
S'HL70301'
S'universal ID type'
ttg9
g8
S'HD'
I227
NS'assigning facility'
t(g3
g5
S'CX_7'
(tg9
g8
S'DT'
I8
NS'effective date'
t(g3
g5
S'CX_8'
(tg9
g8
S'DT'
I8
NS'expiration date'
t(g3
g4
S'CX_9'
((g3
g5
S'CWE_1'
(tg9
g10
S'ST'
I20
NS'identifier'
t(g3
g5
S'CWE_2'
(tg9
g10
S'ST'
I199
NS'text'
t(g3
g5
S'CWE_3'
(tg9
g10
S'ID'
I20
S'HL70396'
S'name of coding system'
t(g3
g5
S'CWE_4'
(tg9
g10
S'ST'
I20
NS'alternate identifier'
t(g3
g5
S'CWE_5'
(tg9
g10
S'ST'
I199
NS'alternate text'
t(g3
g5
S'CWE_6'
(tg9
g10
S'ID'
I20
S'HL70396'
S'name of alternate coding system'
t(g3
g5
S'CWE_7'
(tg9
g10
S'ST'
I10
NS'coding system version ID'
t(g3
g5
S'CWE_8'
(tg9
g10
S'ST'
I10
NS'alternate coding system version ID'
t(g3
g5
S'CWE_9'
(tg9
g10
S'ST'
I199
NS'original text'
ttg9
g8
S'CWE'
I706
NS'assigning jurisdiction'
t(g3
g4
S'CX_10'
((g3
g5
S'CWE_1'
(tg9
g10
S'ST'
I20
NS'identifier'
t(g3
g5
S'CWE_2'
(tg9
g10
S'ST'
I199
NS'text'
t(g3
g5
S'CWE_3'
(tg9
g10
S'ID'
I20
S'HL70396'
S'name of coding system'
t(g3
g5
S'CWE_4'
(tg9
g10
S'ST'
I20
NS'alternate identifier'
t(g3
g5
S'CWE_5'
(tg9
g10
S'ST'
I199
NS'alternate text'
t(g3
g5
S'CWE_6'
(tg9
g10
S'ID'
I20
S'HL70396'
S'name of alternate coding system'
t(g3
g5
S'CWE_7'
(tg9
g10
S'ST'
I10
NS'coding system version ID'
t(g3
g5
S'CWE_8'
(tg9
g10
S'ST'
I10
NS'alternate coding system version ID'
t(g3
g5
S'CWE_9'
(tg9
g10
S'ST'
I199
NS'original text'
ttg9
g8
S'CWE'
I705
NS'assigning agency or department'
tt(I0
I-1
tg6
S'CX'
I1905
NS'What Domains Returned'
tt(I1
I1
tg11
t(g3
g4
S'RCP'
((g3
g5
S'RCP_1'
(t(I1
I1
tg6
S'ID'
I1
S'HL70091'
S'Query Priority'
t(g3
g4
S'RCP_2'
((g3
g5
S'CQ_1'
(tg9
g8
S'NM'
I16
NS'Quantity'
t(g3
g4
S'CQ_2'
((g3
g5
S'CE_1'
(tg9
g10
S'ST'
I20
NS'identifier'
t(g3
g5
S'CE_2'
(tg9
g10
S'ST'
I199
NS'text'
t(g3
g5
S'CE_3'
(tg9
g10
S'ID'
I20
S'HL70396'
S'name of coding system'
t(g3
g5
S'CE_4'
(tg9
g10
S'ST'
I20
NS'alternate identifier'
t(g3
g5
S'CE_5'
(tg9
g10
S'ST'
I199
NS'alternate text'
t(g3
g5
S'CE_6'
(tg9
g10
S'ID'
I20
S'HL70396'
S'name of alternate coding system'
ttg9
g8
S'CE'
I483
S'HL70126'
S'units'
tt(I0
I1
tg6
S'CQ'
I499
NS'Quantity Limited Request'
t(g3
g4
S'RCP_3'
((g3
g5
S'CE_1'
(tg9
g8
S'ST'
I20
NS'identifier'
t(g3
g5
S'CE_2'
(tg9
g8
S'ST'
I199
NS'text'
t(g3
g5
S'CE_3'
(tg9
g8
S'ID'
I20
S'HL70396'
S'name of coding system'
t(g3
g5
S'CE_4'
(tg9
g8
S'ST'
I20
NS'alternate identifier'
t(g3
g5
S'CE_5'
(tg9
g8
S'ST'
I199
NS'alternate text'
t(g3
g5
S'CE_6'
(tg9
g8
S'ID'
I20
S'HL70396'
S'name of alternate coding system'
tt(I0
I1
tg6
S'CE'
I478
S'HL70394'
S'Response Modality'
t(g3
g4
S'RCP_4'
((g3
g5
S'TS_1'
(tg7
g8
S'DTM'
I24
NS'time'
t(g3
g5
S'TS_2'
(tg9
g8
S'ST'
I1
S'HL70529'
S'degree of precision'
tt(I0
I1
tg6
S'TS'
I26
NS'Execution and Delivery Time'
t(g3
g5
S'RCP_5'
(t(I0
I1
tg6
S'ID'
I1
S'HL70395'
S'Modify Indicator'
t(g3
g4
S'RCP_6'
((g3
g5
S'SRT_1'
(tg7
g8
S'ST'
I12
NS'sort-by field'
t(g3
g5
S'SRT_2'
(tg9
g8
S'ID'
I2
S'HL70397'
S'sequencing'
tt(I0
I-1
tg6
S'SRT'
I512
NS'Sort-by Field'
t(g3
g5
S'RCP_7'
(t(I0
I-1
tg6
S'ID'
I256
NS'Segment group inclusion'
tt(I1
I1
tg11
t(g3
g4
S'DSC'
((g3
g5
S'DSC_1'
(t(I1
I1
tg6
S'ST'
I180
NS'Continuation Pointer'
t(g3
g5
S'DSC_2'
(t(I0
I1
tg6
S'ID'
I1
S'HL70398'
S'Continuation Style'
tt(I0
I1
tg11
tttp12
s.