(dp1
S'RSP_K21'
p2
(S'mp'
p3
S'sequence'
p4
g2
((g3
g4
S'MSH'
((g3
S'leaf'
p5
S'MSH_1'
(t(I1
I1
tS'Field'
p6
S'ST'
I1
Nt(g3
g5
S'MSH_2'
(t(I1
I1
tg6
S'ST'
I4
Nt(g3
g4
S'MSH_3'
((g3
g5
S'HD_1'
(t(I1
I1
tp7
S'Component'
p8
S'IS'
I20
S'HL70300'
t(g3
g5
S'HD_2'
(t(I0
I1
tp9
g8
S'ST'
I199
Nt(g3
g5
S'HD_3'
(tg9
g8
S'ID'
I6
S'HL70301'
tt(I1
I1
tg6
S'HD'
I180
S'HL70361'
t(g3
g4
S'MSH_4'
((g3
g5
S'HD_1'
(tg7
g8
S'IS'
I20
S'HL70300'
t(g3
g5
S'HD_2'
(tg9
g8
S'ST'
I199
Nt(g3
g5
S'HD_3'
(tg9
g8
S'ID'
I6
S'HL70301'
tt(I1
I1
tg6
S'HD'
I180
S'HL70362'
t(g3
g4
S'MSH_5'
((g3
g5
S'HD_1'
(tg7
g8
S'IS'
I20
S'HL70300'
t(g3
g5
S'HD_2'
(tg9
g8
S'ST'
I199
Nt(g3
g5
S'HD_3'
(tg9
g8
S'ID'
I6
S'HL70301'
tt(I1
I1
tg6
S'HD'
I180
S'HL70361'
t(g3
g4
S'MSH_6'
((g3
g5
S'HD_1'
(tg7
g8
S'IS'
I20
S'HL70300'
t(g3
g5
S'HD_2'
(tg9
g8
S'ST'
I199
Nt(g3
g5
S'HD_3'
(tg9
g8
S'ID'
I6
S'HL70301'
tt(I1
I1
tg6
S'HD'
I180
S'HL70362'
t(g3
g4
S'MSH_7'
((g3
g5
S'TS_1'
(tg7
g8
S'DTM'
I24
Nt(g3
g5
S'TS_2'
(tg9
g8
S'ST'
I1
S'HL70529'
tt(I1
I1
tg6
S'TS'
I26
Nt(g3
g5
S'MSH_8'
(t(I0
I1
tg6
S'ST'
I40
Nt(g3
g4
S'MSH_9'
((g3
g5
S'MSG_1'
(tg7
g8
S'ID'
I3
S'HL70076'
t(g3
g5
S'MSG_2'
(tg7
g8
S'ID'
I3
S'HL70003'
t(g3
g5
S'MSG_3'
(tg7
g8
S'ID'
I7
S'HL70354'
tt(I1
I1
tg6
S'MSG'
I13
Nt(g3
g5
S'MSH_10'
(t(I1
I1
tg6
S'ST'
I20
Nt(g3
g4
S'MSH_11'
((g3
g5
S'PT_1'
(tg7
g8
S'ID'
I1
S'HL70103'
t(g3
g5
S'PT_2'
(tg9
g8
S'ID'
I1
S'HL70207'
tt(I1
I1
tg6
S'PT'
I3
Nt(g3
g4
S'MSH_12'
((g3
g5
S'VID_1'
(tg7
g8
S'ID'
I5
S'HL70104'
t(g3
g4
S'VID_2'
((g3
g5
S'CE_1'
(tg9
S'SubComponent'
p10
S'ST'
I20
Nt(g3
g5
S'CE_2'
(tg9
g10
S'ST'
I199
Nt(g3
g5
S'CE_3'
(tg9
g10
S'ID'
I20
S'HL70396'
t(g3
g5
S'CE_4'
(tg9
g10
S'ST'
I20
Nt(g3
g5
S'CE_5'
(tg9
g10
S'ST'
I199
Nt(g3
g5
S'CE_6'
(tg9
g10
S'ID'
I20
S'HL70396'
ttg9
g8
S'CE'
I483
S'HL70399'
t(g3
g4
S'VID_3'
((g3
g5
S'CE_1'
(tg9
g10
S'ST'
I20
Nt(g3
g5
S'CE_2'
(tg9
g10
S'ST'
I199
Nt(g3
g5
S'CE_3'
(tg9
g10
S'ID'
I20
S'HL70396'
t(g3
g5
S'CE_4'
(tg9
g10
S'ST'
I20
Nt(g3
g5
S'CE_5'
(tg9
g10
S'ST'
I199
Nt(g3
g5
S'CE_6'
(tg9
g10
S'ID'
I20
S'HL70396'
ttg9
g8
S'CE'
I483
Ntt(I1
I1
tg6
S'VID'
I60
Nt(g3
g5
S'MSH_13'
(t(I0
I1
tg6
S'NM'
I15
Nt(g3
g5
S'MSH_14'
(t(I0
I1
tg6
S'ST'
I180
Nt(g3
g5
S'MSH_15'
(t(I0
I1
tg6
S'ID'
I2
S'HL70155'
t(g3
g5
S'MSH_16'
(t(I0
I1
tg6
S'ID'
I2
S'HL70155'
t(g3
g5
S'MSH_17'
(t(I0
I1
tg6
S'ID'
I3
S'HL70399'
t(g3
g5
S'MSH_18'
(t(I0
I-1
tg6
S'ID'
I16
S'HL70211'
t(g3
g4
S'MSH_19'
((g3
g5
S'CE_1'
(tg9
g8
S'ST'
I20
Nt(g3
g5
S'CE_2'
(tg9
g8
S'ST'
I199
Nt(g3
g5
S'CE_3'
(tg9
g8
S'ID'
I20
S'HL70396'
t(g3
g5
S'CE_4'
(tg9
g8
S'ST'
I20
Nt(g3
g5
S'CE_5'
(tg9
g8
S'ST'
I199
Nt(g3
g5
S'CE_6'
(tg9
g8
S'ID'
I20
S'HL70396'
tt(I0
I1
tg6
S'CE'
I250
Nt(g3
g5
S'MSH_20'
(t(I0
I1
tg6
S'ID'
I20
S'HL70356'
t(g3
g4
S'MSH_21'
((g3
g5
S'EI_1'
(tg9
g8
S'ST'
I199
Nt(g3
g5
S'EI_2'
(tg9
g8
S'IS'
I20
S'HL70363'
t(g3
g5
S'EI_3'
(tg9
g8
S'ST'
I199
Nt(g3
g5
S'EI_4'
(tg9
g8
S'ID'
I6
S'HL70301'
tt(I0
I-1
tg6
S'EI'
I427
Ntt(I1
I1
tS'Segment'
p11
t(g3
g4
S'SFT'
((g3
g4
S'SFT_1'
((g3
g5
S'XON_1'
(tg7
g8
S'ST'
I50
Nt(g3
g5
S'XON_2'
(tg9
g8
S'IS'
I20
S'HL70204'
t(g3
g5
S'XON_3'
(tg9
g8
S'NM'
I4
Nt(g3
g5
S'XON_4'
(tg9
g8
S'NM'
I1
Nt(g3
g5
S'XON_5'
(tg9
g8
S'ID'
I3
S'HL70061'
t(g3
g4
S'XON_6'
((g3
g5
S'HD_1'
(tg9
g10
S'IS'
I20
S'HL70300'
t(g3
g5
S'HD_2'
(tg9
g10
S'ST'
I199
Nt(g3
g5
S'HD_3'
(tg9
g10
S'ID'
I6
S'HL70301'
ttg9
g8
S'HD'
I227
S'HL70363'
t(g3
g5
S'XON_7'
(tg9
g8
S'ID'
I5
S'HL70203'
t(g3
g4
S'XON_8'
((g3
g5
S'HD_1'
(tg9
g10
S'IS'
I20
S'HL70300'
t(g3
g5
S'HD_2'
(tg9
g10
S'ST'
I199
Nt(g3
g5
S'HD_3'
(tg9
g10
S'ID'
I6
S'HL70301'
ttg9
g8
S'HD'
I227
Nt(g3
g5
S'XON_9'
(tg9
g8
S'ID'
I1
S'HL70465'
t(g3
g5
S'XON_10'
(tg9
g8
S'ST'
I20
Ntt(I1
I1
tg6
S'XON'
I567
Nt(g3
g5
S'SFT_2'
(t(I1
I1
tg6
S'ST'
I15
Nt(g3
g5
S'SFT_3'
(t(I1
I1
tg6
S'ST'
I20
Nt(g3
g5
S'SFT_4'
(t(I1
I1
tg6
S'ST'
I20
Nt(g3
g5
S'SFT_5'
(t(I0
I1
tg6
S'TX'
I1024
Nt(g3
g4
S'SFT_6'
((g3
g5
S'TS_1'
(tg7
g8
S'DTM'
I24
Nt(g3
g5
S'TS_2'
(tg9
g8
S'ST'
I1
S'HL70529'
tt(I0
I1
tg6
S'TS'
I26
Ntt(I0
I-1
tg11
t(g3
g4
S'MSA'
((g3
g5
S'MSA_1'
(t(I1
I1
tg6
S'ID'
I2
S'HL70008'
t(g3
g5
S'MSA_2'
(t(I1
I1
tg6
S'ST'
I20
Nt(g3
g5
S'MSA_3'
(t(I0
I0
tg6
S'ST'
I80
Nt(g3
g5
S'MSA_4'
(t(I0
I1
tg6
S'NM'
I15
Nt(g3
g5
S'MSA_5'
(t(I0
I0
tg6
S'ID'
I1
Nt(g3
g4
S'MSA_6'
((g3
g5
S'CE_1'
(tg9
g8
S'ST'
I20
Nt(g3
g5
S'CE_2'
(tg9
g8
S'ST'
I199
Nt(g3
g5
S'CE_3'
(tg9
g8
S'ID'
I20
S'HL70396'
t(g3
g5
S'CE_4'
(tg9
g8
S'ST'
I20
Nt(g3
g5
S'CE_5'
(tg9
g8
S'ST'
I199
Nt(g3
g5
S'CE_6'
(tg9
g8
S'ID'
I20
S'HL70396'
tt(I0
I0
tg6
S'CE'
I250
S'HL70357'
tt(I1
I1
tg11
t(g3
g4
S'ERR'
((g3
g4
S'ERR_1'
((g3
g5
S'ELD_1'
(tg7
g8
S'ST'
I3
Nt(g3
g5
S'ELD_2'
(tg9
g8
S'NM'
I2
Nt(g3
g5
S'ELD_3'
(tg9
g8
S'NM'
I2
Nt(g3
g4
S'ELD_4'
((g3
g5
S'CE_1'
(tg9
g10
S'ST'
I20
Nt(g3
g5
S'CE_2'
(tg9
g10
S'ST'
I199
Nt(g3
g5
S'CE_3'
(tg9
g10
S'ID'
I20
S'HL70396'
t(g3
g5
S'CE_4'
(tg9
g10
S'ST'
I20
Nt(g3
g5
S'CE_5'
(tg9
g10
S'ST'
I199
Nt(g3
g5
S'CE_6'
(tg9
g10
S'ID'
I20
S'HL70396'
ttg9
g8
S'CE'
I483
Ntt(I0
I0
tg6
S'ELD'
I493
Nt(g3
g4
S'ERR_2'
((g3
g5
S'ERL_1'
(tg7
g8
S'ST'
I3
Nt(g3
g5
S'ERL_2'
(tg7
g8
S'NM'
I2
Nt(g3
g5
S'ERL_3'
(tg9
g8
S'NM'
I2
Nt(g3
g5
S'ERL_4'
(tg9
g8
S'NM'
I2
Nt(g3
g5
S'ERL_5'
(tg9
g8
S'NM'
I2
Nt(g3
g5
S'ERL_6'
(tg9
g8
S'NM'
I2
Ntt(I0
I-1
tg6
S'ERL'
I18
Nt(g3
g4
S'ERR_3'
((g3
g5
S'CWE_1'
(tg7
g8
S'ST'
I20
Nt(g3
g5
S'CWE_2'
(tg9
g8
S'ST'
I199
Nt(g3
g5
S'CWE_3'
(tg9
g8
S'ID'
I20
S'HL70396'
t(g3
g5
S'CWE_4'
(tg9
g8
S'ST'
I20
Nt(g3
g5
S'CWE_5'
(tg9
g8
S'ST'
I199
Nt(g3
g5
S'CWE_6'
(tg9
g8
S'ID'
I20
S'HL70396'
t(g3
g5
S'CWE_7'
(tg9
g8
S'ST'
I10
Nt(g3
g5
S'CWE_8'
(tg9
g8
S'ST'
I10
Nt(g3
g5
S'CWE_9'
(tg9
g8
S'ST'
I199
Ntt(I1
I1
tg6
S'CWE'
I705
S'HL70357'
t(g3
g5
S'ERR_4'
(t(I1
I1
tg6
S'ID'
I2
S'HL70516'
t(g3
g4
S'ERR_5'
((g3
g5
S'CWE_1'
(tg9
g8
S'ST'
I20
Nt(g3
g5
S'CWE_2'
(tg9
g8
S'ST'
I199
Nt(g3
g5
S'CWE_3'
(tg9
g8
S'ID'
I20
S'HL70396'
t(g3
g5
S'CWE_4'
(tg9
g8
S'ST'
I20
Nt(g3
g5
S'CWE_5'
(tg9
g8
S'ST'
I199
Nt(g3
g5
S'CWE_6'
(tg9
g8
S'ID'
I20
S'HL70396'
t(g3
g5
S'CWE_7'
(tg9
g8
S'ST'
I10
Nt(g3
g5
S'CWE_8'
(tg9
g8
S'ST'
I10
Nt(g3
g5
S'CWE_9'
(tg9
g8
S'ST'
I199
Ntt(I0
I1
tg6
S'CWE'
I705
S'HL70533'
t(g3
g5
S'ERR_6'
(t(I0
I-1
tg6
S'ST'
I80
Nt(g3
g5
S'ERR_7'
(t(I0
I1
tg6
S'TX'
I2048
Nt(g3
g5
S'ERR_8'
(t(I0
I1
tg6
S'TX'
I250
Nt(g3
g5
S'ERR_9'
(t(I0
I-1
tg6
S'IS'
I20
S'HL70517'
t(g3
g4
S'ERR_10'
((g3
g5
S'CWE_1'
(tg9
g8
S'ST'
I20
Nt(g3
g5
S'CWE_2'
(tg9
g8
S'ST'
I199
Nt(g3
g5
S'CWE_3'
(tg9
g8
S'ID'
I20
S'HL70396'
t(g3
g5
S'CWE_4'
(tg9
g8
S'ST'
I20
Nt(g3
g5
S'CWE_5'
(tg9
g8
S'ST'
I199
Nt(g3
g5
S'CWE_6'
(tg9
g8
S'ID'
I20
S'HL70396'
t(g3
g5
S'CWE_7'
(tg9
g8
S'ST'
I10
Nt(g3
g5
S'CWE_8'
(tg9
g8
S'ST'
I10
Nt(g3
g5
S'CWE_9'
(tg9
g8
S'ST'
I199
Ntt(I0
I1
tg6
S'CWE'
I705
S'HL70518'
t(g3
g4
S'ERR_11'
((g3
g5
S'CWE_1'
(tg9
g8
S'ST'
I20
Nt(g3
g5
S'CWE_2'
(tg9
g8
S'ST'
I199
Nt(g3
g5
S'CWE_3'
(tg9
g8
S'ID'
I20
S'HL70396'
t(g3
g5
S'CWE_4'
(tg9
g8
S'ST'
I20
Nt(g3
g5
S'CWE_5'
(tg9
g8
S'ST'
I199
Nt(g3
g5
S'CWE_6'
(tg9
g8
S'ID'
I20
S'HL70396'
t(g3
g5
S'CWE_7'
(tg9
g8
S'ST'
I10
Nt(g3
g5
S'CWE_8'
(tg9
g8
S'ST'
I10
Nt(g3
g5
S'CWE_9'
(tg9
g8
S'ST'
I199
Ntt(I0
I-1
tg6
S'CWE'
I705
S'HL70519'
t(g3
g4
S'ERR_12'
((g3
g5
S'XTN_1'
(tg9
g8
S'ST'
I199
Nt(g3
g5
S'XTN_2'
(tg9
g8
S'ID'
I3
S'HL70201'
t(g3
g5
S'XTN_3'
(tg9
g8
S'ID'
I8
S'HL70202'
t(g3
g5
S'XTN_4'
(tg9
g8
S'ST'
I199
Nt(g3
g5
S'XTN_5'
(tg9
g8
S'NM'
I3
Nt(g3
g5
S'XTN_6'
(tg9
g8
S'NM'
I5
Nt(g3
g5
S'XTN_7'
(tg9
g8
S'NM'
I9
Nt(g3
g5
S'XTN_8'
(tg9
g8
S'NM'
I5
Nt(g3
g5
S'XTN_9'
(tg9
g8
S'ST'
I199
Nt(g3
g5
S'XTN_10'
(tg9
g8
S'ST'
I4
Nt(g3
g5
S'XTN_11'
(tg9
g8
S'ST'
I6
Nt(g3
g5
S'XTN_12'
(tg9
g8
S'ST'
I199
Ntt(I0
I-1
tg6
S'XTN'
I652
Ntt(I0
I-1
tg11
t(g3
g4
S'QAK'
((g3
g5
S'QAK_1'
(t(I1
I1
tg6
S'ST'
I32
Nt(g3
g5
S'QAK_2'
(t(I1
I1
tg6
S'ID'
I2
S'HL70208'
t(g3
g4
S'QAK_3'
((g3
g5
S'CE_1'
(tg9
g8
S'ST'
I20
Nt(g3
g5
S'CE_2'
(tg9
g8
S'ST'
I199
Nt(g3
g5
S'CE_3'
(tg9
g8
S'ID'
I20
S'HL70396'
t(g3
g5
S'CE_4'
(tg9
g8
S'ST'
I20
Nt(g3
g5
S'CE_5'
(tg9
g8
S'ST'
I199
Nt(g3
g5
S'CE_6'
(tg9
g8
S'ID'
I20
S'HL70396'
tt(I0
I1
tg6
S'CE'
I478
S'HL70471'
t(g3
g5
S'QAK_4'
(t(I0
I1
tg6
S'NM'
I10
Nt(g3
g5
S'QAK_5'
(t(I0
I1
tg6
S'NM'
I10
Nt(g3
g5
S'QAK_6'
(t(I0
I1
tg6
S'NM'
I10
Ntt(I1
I1
tg11
t(g3
g4
S'QPD'
((g3
g4
S'QPD_1'
((g3
g5
S'CE_1'
(tg9
g8
S'ST'
I20
Nt(g3
g5
S'CE_2'
(tg9
g8
S'ST'
I199
Nt(g3
g5
S'CE_3'
(tg9
g8
S'ID'
I20
S'HL70396'
t(g3
g5
S'CE_4'
(tg9
g8
S'ST'
I20
Nt(g3
g5
S'CE_5'
(tg9
g8
S'ST'
I199
Nt(g3
g5
S'CE_6'
(tg9
g8
S'ID'
I20
S'HL70396'
tt(I1
I1
tg6
S'CE'
I250
S'HL70471'
t(g3
g5
S'QPD_2'
(t(I1
I1
tg6
S'ST'
I32
Nt(g3
g4
S'QPD_3'
((g3
g5
S'QIP_1'
(tg7
g8
S'ST'
I12
Nt(g3
g5
S'QIP_2'
(tg7
g8
S'ST'
I199
Ntt(I1
I-1
tg6
S'QIP'
I212
Nt(g3
g5
S'QPD_4'
(t(I0
I1
tg6
S'NM'
I16
Nt(g3
g5
S'QPD_5'
(t(I0
I1
tg6
S'ST'
I199
Nt(g3
g5
S'QPD_6'
(t(I0
I1
tg6
S'ST'
I199
Nt(g3
g5
S'QPD_7'
(t(I0
I1
tg6
S'ST'
I199
Nt(g3
g4
S'QPD_8'
((g3
g5
S'CX_1'
(tg9
g8
S'ST'
I15
Nt(g3
g5
S'CX_2'
(tg9
g8
S'ST'
I1
Nt(g3
g5
S'CX_3'
(tg9
g8
S'ID'
I3
S'HL70061'
t(g3
g4
S'CX_4'
((g3
g5
S'HD_1'
(tg9
g10
S'IS'
I20
S'HL70300'
t(g3
g5
S'HD_2'
(tg9
g10
S'ST'
I199
Nt(g3
g5
S'HD_3'
(tg9
g10
S'ID'
I6
S'HL70301'
ttg7
g8
S'HD'
I227
S'HL70363'
t(g3
g5
S'CX_5'
(tg9
g8
S'ID'
I5
S'HL70203'
t(g3
g4
S'CX_6'
((g3
g5
S'HD_1'
(tg9
g10
S'IS'
I20
S'HL70300'
t(g3
g5
S'HD_2'
(tg9
g10
S'ST'
I199
Nt(g3
g5
S'HD_3'
(tg9
g10
S'ID'
I6
S'HL70301'
ttg9
g8
S'HD'
I227
Nt(g3
g5
S'CX_7'
(tg9
g8
S'DT'
I8
Nt(g3
g5
S'CX_8'
(tg9
g8
S'DT'
I8
Nt(g3
g4
S'CX_9'
((g3
g5
S'CWE_1'
(tg9
g10
S'ST'
I20
Nt(g3
g5
S'CWE_2'
(tg9
g10
S'ST'
I199
Nt(g3
g5
S'CWE_3'
(tg9
g10
S'ID'
I20
S'HL70396'
t(g3
g5
S'CWE_4'
(tg9
g10
S'ST'
I20
Nt(g3
g5
S'CWE_5'
(tg9
g10
S'ST'
I199
Nt(g3
g5
S'CWE_6'
(tg9
g10
S'ID'
I20
S'HL70396'
t(g3
g5
S'CWE_7'
(tg9
g10
S'ST'
I10
Nt(g3
g5
S'CWE_8'
(tg9
g10
S'ST'
I10
Nt(g3
g5
S'CWE_9'
(tg9
g10
S'ST'
I199
Nttg9
g8
S'CWE'
I706
Nt(g3
g4
S'CX_10'
((g3
g5
S'CWE_1'
(tg9
g10
S'ST'
I20
Nt(g3
g5
S'CWE_2'
(tg9
g10
S'ST'
I199
Nt(g3
g5
S'CWE_3'
(tg9
g10
S'ID'
I20
S'HL70396'
t(g3
g5
S'CWE_4'
(tg9
g10
S'ST'
I20
Nt(g3
g5
S'CWE_5'
(tg9
g10
S'ST'
I199
Nt(g3
g5
S'CWE_6'
(tg9
g10
S'ID'
I20
S'HL70396'
t(g3
g5
S'CWE_7'
(tg9
g10
S'ST'
I10
Nt(g3
g5
S'CWE_8'
(tg9
g10
S'ST'
I10
Nt(g3
g5
S'CWE_9'
(tg9
g10
S'ST'
I199
Nttg9
g8
S'CWE'
I705
Ntt(I0
I-1
tg6
S'CX'
I1905
Ntt(I1
I1
tg11
t(g3
g4
S'RSP_K21_QUERY_RESPONSE'
((g3
g4
S'PID'
((g3
g5
S'PID_1'
(t(I0
I1
tg6
S'SI'
I4
Nt(g3
g4
S'PID_2'
((g3
g5
S'CX_1'
(tg7
g8
S'ST'
I15
Nt(g3
g5
S'CX_2'
(tg9
g8
S'ST'
I1
Nt(g3
g5
S'CX_3'
(tg9
g8
S'ID'
I3
S'HL70061'
t(g3
g4
S'CX_4'
((g3
g5
S'HD_1'
(tg7
g10
S'IS'
I20
S'HL70300'
t(g3
g5
S'HD_2'
(tg9
g10
S'ST'
I199
Nt(g3
g5
S'HD_3'
(tg9
g10
S'ID'
I6
S'HL70301'
ttg7
g8
S'HD'
I227
S'HL70363'
t(g3
g5
S'CX_5'
(tg9
g8
S'ID'
I5
S'HL70203'
t(g3
g4
S'CX_6'
((g3
g5
S'HD_1'
(tg9
g10
S'IS'
I20
S'HL70300'
t(g3
g5
S'HD_2'
(tg9
g10
S'ST'
I199
Nt(g3
g5
S'HD_3'
(tg9
g10
S'ID'
I6
S'HL70301'
ttg9
g8
S'HD'
I227
Nt(g3
g5
S'CX_7'
(tg9
g8
S'DT'
I8
Nt(g3
g5
S'CX_8'
(tg9
g8
S'DT'
I8
Nt(g3
g4
S'CX_9'
((g3
g5
S'CWE_1'
(tg9
g10
S'ST'
I20
Nt(g3
g5
S'CWE_2'
(tg9
g10
S'ST'
I199
Nt(g3
g5
S'CWE_3'
(tg9
g10
S'ID'
I20
S'HL70396'
t(g3
g5
S'CWE_4'
(tg9
g10
S'ST'
I20
Nt(g3
g5
S'CWE_5'
(tg9
g10
S'ST'
I199
Nt(g3
g5
S'CWE_6'
(tg9
g10
S'ID'
I20
S'HL70396'
t(g3
g5
S'CWE_7'
(tg9
g10
S'ST'
I10
Nt(g3
g5
S'CWE_8'
(tg9
g10
S'ST'
I10
Nt(g3
g5
S'CWE_9'
(tg9
g10
S'ST'
I199
Nttg9
g8
S'CWE'
I706
Nt(g3
g4
S'CX_10'
((g3
g5
S'CWE_1'
(tg9
g10
S'ST'
I20
Nt(g3
g5
S'CWE_2'
(tg9
g10
S'ST'
I199
Nt(g3
g5
S'CWE_3'
(tg9
g10
S'ID'
I20
S'HL70396'
t(g3
g5
S'CWE_4'
(tg9
g10
S'ST'
I20
Nt(g3
g5
S'CWE_5'
(tg9
g10
S'ST'
I199
Nt(g3
g5
S'CWE_6'
(tg9
g10
S'ID'
I20
S'HL70396'
t(g3
g5
S'CWE_7'
(tg9
g10
S'ST'
I10
Nt(g3
g5
S'CWE_8'
(tg9
g10
S'ST'
I10
Nt(g3
g5
S'CWE_9'
(tg9
g10
S'ST'
I199
Nttg9
g8
S'CWE'
I705
Ntt(I0
I0
tg6
S'CX'
I1905
Nt(g3
g4
S'PID_3'
((g3
g5
S'CX_1'
(tg7
g8
S'ST'
I15
Nt(g3
g5
S'CX_2'
(tg9
g8
S'ST'
I1
Nt(g3
g5
S'CX_3'
(tg9
g8
S'ID'
I3
S'HL70061'
t(g3
g4
S'CX_4'
((g3
g5
S'HD_1'
(tg7
g10
S'IS'
I20
S'HL70300'
t(g3
g5
S'HD_2'
(tg7
g10
S'ST'
I199
Nt(g3
g5
S'HD_3'
(tg7
g10
S'ID'
I6
S'HL70301'
ttg7
g8
S'HD'
I227
S'HL70363'
t(g3
g5
S'CX_5'
(tg9
g8
S'ID'
I5
S'HL70203'
t(g3
g4
S'CX_6'
((g3
g5
S'HD_1'
(tg9
g10
S'IS'
I20
S'HL70300'
t(g3
g5
S'HD_2'
(tg9
g10
S'ST'
I199
Nt(g3
g5
S'HD_3'
(tg9
g10
S'ID'
I6
S'HL70301'
ttg9
g8
S'HD'
I227
Nt(g3
g5
S'CX_7'
(tg9
g8
S'DT'
I8
Nt(g3
g5
S'CX_8'
(tg9
g8
S'DT'
I8
Nt(g3
g4
S'CX_9'
((g3
g5
S'CWE_1'
(tg9
g10
S'ST'
I20
Nt(g3
g5
S'CWE_2'
(tg9
g10
S'ST'
I199
Nt(g3
g5
S'CWE_3'
(tg9
g10
S'ID'
I20
S'HL70396'
t(g3
g5
S'CWE_4'
(tg9
g10
S'ST'
I20
Nt(g3
g5
S'CWE_5'
(tg9
g10
S'ST'
I199
Nt(g3
g5
S'CWE_6'
(tg9
g10
S'ID'
I20
S'HL70396'
t(g3
g5
S'CWE_7'
(tg9
g10
S'ST'
I10
Nt(g3
g5
S'CWE_8'
(tg9
g10
S'ST'
I10
Nt(g3
g5
S'CWE_9'
(tg9
g10
S'ST'
I199
Nttg9
g8
S'CWE'
I706
Nt(g3
g4
S'CX_10'
((g3
g5
S'CWE_1'
(tg9
g10
S'ST'
I20
Nt(g3
g5
S'CWE_2'
(tg9
g10
S'ST'
I199
Nt(g3
g5
S'CWE_3'
(tg9
g10
S'ID'
I20
S'HL70396'
t(g3
g5
S'CWE_4'
(tg9
g10
S'ST'
I20
Nt(g3
g5
S'CWE_5'
(tg9
g10
S'ST'
I199
Nt(g3
g5
S'CWE_6'
(tg9
g10
S'ID'
I20
S'HL70396'
t(g3
g5
S'CWE_7'
(tg9
g10
S'ST'
I10
Nt(g3
g5
S'CWE_8'
(tg9
g10
S'ST'
I10
Nt(g3
g5
S'CWE_9'
(tg9
g10
S'ST'
I199
Nttg9
g8
S'CWE'
I705
Ntt(I1
I-1
tg6
S'CX'
I1905
Nt(g3
g4
S'PID_4'
((g3
g5
S'CX_1'
(tg7
g8
S'ST'
I15
Nt(g3
g5
S'CX_2'
(tg9
g8
S'ST'
I1
Nt(g3
g5
S'CX_3'
(tg9
g8
S'ID'
I3
S'HL70061'
t(g3
g4
S'CX_4'
((g3
g5
S'HD_1'
(tg7
g10
S'IS'
I20
S'HL70300'
t(g3
g5
S'HD_2'
(tg9
g10
S'ST'
I199
Nt(g3
g5
S'HD_3'
(tg9
g10
S'ID'
I6
S'HL70301'
ttg7
g8
S'HD'
I227
S'HL70363'
t(g3
g5
S'CX_5'
(tg9
g8
S'ID'
I5
S'HL70203'
t(g3
g4
S'CX_6'
((g3
g5
S'HD_1'
(tg9
g10
S'IS'
I20
S'HL70300'
t(g3
g5
S'HD_2'
(tg9
g10
S'ST'
I199
Nt(g3
g5
S'HD_3'
(tg9
g10
S'ID'
I6
S'HL70301'
ttg9
g8
S'HD'
I227
Nt(g3
g5
S'CX_7'
(tg9
g8
S'DT'
I8
Nt(g3
g5
S'CX_8'
(tg9
g8
S'DT'
I8
Nt(g3
g4
S'CX_9'
((g3
g5
S'CWE_1'
(tg9
g10
S'ST'
I20
Nt(g3
g5
S'CWE_2'
(tg9
g10
S'ST'
I199
Nt(g3
g5
S'CWE_3'
(tg9
g10
S'ID'
I20
S'HL70396'
t(g3
g5
S'CWE_4'
(tg9
g10
S'ST'
I20
Nt(g3
g5
S'CWE_5'
(tg9
g10
S'ST'
I199
Nt(g3
g5
S'CWE_6'
(tg9
g10
S'ID'
I20
S'HL70396'
t(g3
g5
S'CWE_7'
(tg9
g10
S'ST'
I10
Nt(g3
g5
S'CWE_8'
(tg9
g10
S'ST'
I10
Nt(g3
g5
S'CWE_9'
(tg9
g10
S'ST'
I199
Nttg9
g8
S'CWE'
I706
Nt(g3
g4
S'CX_10'
((g3
g5
S'CWE_1'
(tg9
g10
S'ST'
I20
Nt(g3
g5
S'CWE_2'
(tg9
g10
S'ST'
I199
Nt(g3
g5
S'CWE_3'
(tg9
g10
S'ID'
I20
S'HL70396'
t(g3
g5
S'CWE_4'
(tg9
g10
S'ST'
I20
Nt(g3
g5
S'CWE_5'
(tg9
g10
S'ST'
I199
Nt(g3
g5
S'CWE_6'
(tg9
g10
S'ID'
I20
S'HL70396'
t(g3
g5
S'CWE_7'
(tg9
g10
S'ST'
I10
Nt(g3
g5
S'CWE_8'
(tg9
g10
S'ST'
I10
Nt(g3
g5
S'CWE_9'
(tg9
g10
S'ST'
I199
Nttg9
g8
S'CWE'
I705
Ntt(I0
I0
tg6
S'CX'
I1905
Nt(g3
g4
S'PID_5'
((g3
g4
S'XPN_1'
((g3
g5
S'FN_1'
(tg7
g10
S'ST'
I50
Nt(g3
g5
S'FN_2'
(tg9
g10
S'ST'
I20
Nt(g3
g5
S'FN_3'
(tg9
g10
S'ST'
I50
Nt(g3
g5
S'FN_4'
(tg9
g10
S'ST'
I20
Nt(g3
g5
S'FN_5'
(tg9
g10
S'ST'
I50
Nttg9
g8
S'FN'
I194
Nt(g3
g5
S'XPN_2'
(tg9
g8
S'ST'
I30
Nt(g3
g5
S'XPN_3'
(tg9
g8
S'ST'
I30
Nt(g3
g5
S'XPN_4'
(tg9
g8
S'ST'
I20
Nt(g3
g5
S'XPN_5'
(tg9
g8
S'ST'
I20
Nt(g3
g5
S'XPN_6'
(tg9
g8
S'IS'
I6
S'HL70360'
t(g3
g5
S'XPN_7'
(tg7
g8
S'ID'
I1
S'HL70200'
t(g3
g5
S'XPN_8'
(tg9
g8
S'ID'
I1
S'HL70465'
t(g3
g4
S'XPN_9'
((g3
g5
S'CE_1'
(tg9
g10
S'ST'
I20
Nt(g3
g5
S'CE_2'
(tg9
g10
S'ST'
I199
Nt(g3
g5
S'CE_3'
(tg9
g10
S'ID'
I20
S'HL70396'
t(g3
g5
S'CE_4'
(tg9
g10
S'ST'
I20
Nt(g3
g5
S'CE_5'
(tg9
g10
S'ST'
I199
Nt(g3
g5
S'CE_6'
(tg9
g10
S'ID'
I20
S'HL70396'
ttg9
g8
S'CE'
I483
S'HL70448'
t(g3
g4
S'XPN_10'
((g3
g5
S'DR_1'
(tg9
g10
S'TS'
I26
Nt(g3
g5
S'DR_2'
(tg9
g10
S'TS'
I26
Nttg9
g8
S'DR'
I53
Nt(g3
g5
S'XPN_11'
(tg9
g8
S'ID'
I1
S'HL70444'
t(g3
g4
S'XPN_12'
((g3
g5
S'TS_1'
(tg7
g10
S'DTM'
I24
Nt(g3
g5
S'TS_2'
(tg9
g10
S'ST'
I1
S'HL70529'
ttg9
g8
S'TS'
I26
Nt(g3
g4
S'XPN_13'
((g3
g5
S'TS_1'
(tg7
g10
S'DTM'
I24
Nt(g3
g5
S'TS_2'
(tg9
g10
S'ST'
I1
S'HL70529'
ttg9
g8
S'TS'
I26
Nt(g3
g5
S'XPN_14'
(tg9
g8
S'ST'
I199
Ntt(I1
I-1
tg6
S'XPN'
I294
Nt(g3
g4
S'PID_6'
((g3
g4
S'XPN_1'
((g3
g5
S'FN_1'
(tg7
g10
S'ST'
I50
Nt(g3
g5
S'FN_2'
(tg9
g10
S'ST'
I20
Nt(g3
g5
S'FN_3'
(tg9
g10
S'ST'
I50
Nt(g3
g5
S'FN_4'
(tg9
g10
S'ST'
I20
Nt(g3
g5
S'FN_5'
(tg9
g10
S'ST'
I50
Nttg9
g8
S'FN'
I194
Nt(g3
g5
S'XPN_2'
(tg9
g8
S'ST'
I30
Nt(g3
g5
S'XPN_3'
(tg9
g8
S'ST'
I30
Nt(g3
g5
S'XPN_4'
(tg9
g8
S'ST'
I20
Nt(g3
g5
S'XPN_5'
(tg9
g8
S'ST'
I20
Nt(g3
g5
S'XPN_6'
(tg9
g8
S'IS'
I6
S'HL70360'
t(g3
g5
S'XPN_7'
(tg7
g8
S'ID'
I1
S'HL70200'
t(g3
g5
S'XPN_8'
(tg9
g8
S'ID'
I1
S'HL70465'
t(g3
g4
S'XPN_9'
((g3
g5
S'CE_1'
(tg9
g10
S'ST'
I20
Nt(g3
g5
S'CE_2'
(tg9
g10
S'ST'
I199
Nt(g3
g5
S'CE_3'
(tg9
g10
S'ID'
I20
S'HL70396'
t(g3
g5
S'CE_4'
(tg9
g10
S'ST'
I20
Nt(g3
g5
S'CE_5'
(tg9
g10
S'ST'
I199
Nt(g3
g5
S'CE_6'
(tg9
g10
S'ID'
I20
S'HL70396'
ttg9
g8
S'CE'
I483
S'HL70448'
t(g3
g4
S'XPN_10'
((g3
g5
S'DR_1'
(tg9
g10
S'TS'
I26
Nt(g3
g5
S'DR_2'
(tg9
g10
S'TS'
I26
Nttg9
g8
S'DR'
I53
Nt(g3
g5
S'XPN_11'
(tg9
g8
S'ID'
I1
S'HL70444'
t(g3
g4
S'XPN_12'
((g3
g5
S'TS_1'
(tg7
g10
S'DTM'
I24
Nt(g3
g5
S'TS_2'
(tg9
g10
S'ST'
I1
S'HL70529'
ttg9
g8
S'TS'
I26
Nt(g3
g4
S'XPN_13'
((g3
g5
S'TS_1'
(tg7
g10
S'DTM'
I24
Nt(g3
g5
S'TS_2'
(tg9
g10
S'ST'
I1
S'HL70529'
ttg9
g8
S'TS'
I26
Nt(g3
g5
S'XPN_14'
(tg9
g8
S'ST'
I199
Ntt(I0
I-1
tg6
S'XPN'
I294
Nt(g3
g4
S'PID_7'
((g3
g5
S'TS_1'
(tg7
g8
S'DTM'
I24
Nt(g3
g5
S'TS_2'
(tg9
g8
S'ST'
I1
S'HL70529'
tt(I0
I1
tg6
S'TS'
I26
Nt(g3
g5
S'PID_8'
(t(I0
I1
tg6
S'IS'
I1
S'HL70001'
t(g3
g4
S'PID_9'
((g3
g4
S'XPN_1'
((g3
g5
S'FN_1'
(tg7
g10
S'ST'
I50
Nt(g3
g5
S'FN_2'
(tg9
g10
S'ST'
I20
Nt(g3
g5
S'FN_3'
(tg9
g10
S'ST'
I50
Nt(g3
g5
S'FN_4'
(tg9
g10
S'ST'
I20
Nt(g3
g5
S'FN_5'
(tg9
g10
S'ST'
I50
Nttg9
g8
S'FN'
I194
Nt(g3
g5
S'XPN_2'
(tg9
g8
S'ST'
I30
Nt(g3
g5
S'XPN_3'
(tg9
g8
S'ST'
I30
Nt(g3
g5
S'XPN_4'
(tg9
g8
S'ST'
I20
Nt(g3
g5
S'XPN_5'
(tg9
g8
S'ST'
I20
Nt(g3
g5
S'XPN_6'
(tg9
g8
S'IS'
I6
S'HL70360'
t(g3
g5
S'XPN_7'
(tg9
g8
S'ID'
I1
S'HL70200'
t(g3
g5
S'XPN_8'
(tg9
g8
S'ID'
I1
S'HL70465'
t(g3
g4
S'XPN_9'
((g3
g5
S'CE_1'
(tg9
g10
S'ST'
I20
Nt(g3
g5
S'CE_2'
(tg9
g10
S'ST'
I199
Nt(g3
g5
S'CE_3'
(tg9
g10
S'ID'
I20
S'HL70396'
t(g3
g5
S'CE_4'
(tg9
g10
S'ST'
I20
Nt(g3
g5
S'CE_5'
(tg9
g10
S'ST'
I199
Nt(g3
g5
S'CE_6'
(tg9
g10
S'ID'
I20
S'HL70396'
ttg9
g8
S'CE'
I483
S'HL70448'
t(g3
g4
S'XPN_10'
((g3
g5
S'DR_1'
(tg9
g10
S'TS'
I26
Nt(g3
g5
S'DR_2'
(tg9
g10
S'TS'
I26
Nttg9
g8
S'DR'
I53
Nt(g3
g5
S'XPN_11'
(tg9
g8
S'ID'
I1
S'HL70444'
t(g3
g4
S'XPN_12'
((g3
g5
S'TS_1'
(tg7
g10
S'DTM'
I24
Nt(g3
g5
S'TS_2'
(tg9
g10
S'ST'
I1
S'HL70529'
ttg9
g8
S'TS'
I26
Nt(g3
g4
S'XPN_13'
((g3
g5
S'TS_1'
(tg7
g10
S'DTM'
I24
Nt(g3
g5
S'TS_2'
(tg9
g10
S'ST'
I1
S'HL70529'
ttg9
g8
S'TS'
I26
Nt(g3
g5
S'XPN_14'
(tg9
g8
S'ST'
I199
Ntt(I0
I-1
tg6
S'XPN'
I294
Nt(g3
g4
S'PID_10'
((g3
g5
S'CE_1'
(tg9
g8
S'ST'
I20
Nt(g3
g5
S'CE_2'
(tg9
g8
S'ST'
I199
Nt(g3
g5
S'CE_3'
(tg9
g8
S'ID'
I20
S'HL70396'
t(g3
g5
S'CE_4'
(tg9
g8
S'ST'
I20
Nt(g3
g5
S'CE_5'
(tg9
g8
S'ST'
I199
Nt(g3
g5
S'CE_6'
(tg9
g8
S'ID'
I20
S'HL70396'
tt(I0
I-1
tg6
S'CE'
I478
S'HL70005'
t(g3
g4
S'PID_11'
((g3
g4
S'XAD_1'
((g3
g5
S'SAD_1'
(tg9
g10
S'ST'
I120
Nt(g3
g5
S'SAD_2'
(tg9
g10
S'ST'
I50
Nt(g3
g5
S'SAD_3'
(tg9
g10
S'ST'
I12
Nttg9
g8
S'SAD'
I184
Nt(g3
g5
S'XAD_2'
(tg9
g8
S'ST'
I120
Nt(g3
g5
S'XAD_3'
(tg9
g8
S'ST'
I50
Nt(g3
g5
S'XAD_4'
(tg9
g8
S'ST'
I50
Nt(g3
g5
S'XAD_5'
(tg9
g8
S'ST'
I12
Nt(g3
g5
S'XAD_6'
(tg9
g8
S'ID'
I3
S'HL70399'
t(g3
g5
S'XAD_7'
(tg9
g8
S'ID'
I3
S'HL70190'
t(g3
g5
S'XAD_8'
(tg9
g8
S'ST'
I50
Nt(g3
g5
S'XAD_9'
(tg9
g8
S'IS'
I20
S'HL70289'
t(g3
g5
S'XAD_10'
(tg9
g8
S'IS'
I20
S'HL70288'
t(g3
g5
S'XAD_11'
(tg9
g8
S'ID'
I1
S'HL70465'
t(g3
g4
S'XAD_12'
((g3
g5
S'DR_1'
(tg9
g10
S'TS'
I26
Nt(g3
g5
S'DR_2'
(tg9
g10
S'TS'
I26
Nttg9
g8
S'DR'
I53
Nt(g3
g4
S'XAD_13'
((g3
g5
S'TS_1'
(tg7
g10
S'DTM'
I24
Nt(g3
g5
S'TS_2'
(tg9
g10
S'ST'
I1
S'HL70529'
ttg9
g8
S'TS'
I26
Nt(g3
g4
S'XAD_14'
((g3
g5
S'TS_1'
(tg7
g10
S'DTM'
I24
Nt(g3
g5
S'TS_2'
(tg9
g10
S'ST'
I1
S'HL70529'
ttg9
g8
S'TS'
I26
Ntt(I0
I-1
tg6
S'XAD'
I513
Nt(g3
g5
S'PID_12'
(t(I0
I0
tg6
S'IS'
I4
S'HL70289'
t(g3
g4
S'PID_13'
((g3
g5
S'XTN_1'
(tg9
g8
S'ST'
I199
Nt(g3
g5
S'XTN_2'
(tg9
g8
S'ID'
I3
S'HL70201'
t(g3
g5
S'XTN_3'
(tg9
g8
S'ID'
I8
S'HL70202'
t(g3
g5
S'XTN_4'
(tg9
g8
S'ST'
I199
Nt(g3
g5
S'XTN_5'
(tg9
g8
S'NM'
I3
Nt(g3
g5
S'XTN_6'
(tg9
g8
S'NM'
I5
Nt(g3
g5
S'XTN_7'
(tg9
g8
S'NM'
I9
Nt(g3
g5
S'XTN_8'
(tg9
g8
S'NM'
I5
Nt(g3
g5
S'XTN_9'
(tg9
g8
S'ST'
I199
Nt(g3
g5
S'XTN_10'
(tg9
g8
S'ST'
I4
Nt(g3
g5
S'XTN_11'
(tg9
g8
S'ST'
I6
Nt(g3
g5
S'XTN_12'
(tg9
g8
S'ST'
I199
Ntt(I0
I-1
tg6
S'XTN'
I250
Nt(g3
g4
S'PID_14'
((g3
g5
S'XTN_1'
(tg9
g8
S'ST'
I199
Nt(g3
g5
S'XTN_2'
(tg9
g8
S'ID'
I3
S'HL70201'
t(g3
g5
S'XTN_3'
(tg9
g8
S'ID'
I8
S'HL70202'
t(g3
g5
S'XTN_4'
(tg9
g8
S'ST'
I199
Nt(g3
g5
S'XTN_5'
(tg9
g8
S'NM'
I3
Nt(g3
g5
S'XTN_6'
(tg9
g8
S'NM'
I5
Nt(g3
g5
S'XTN_7'
(tg9
g8
S'NM'
I9
Nt(g3
g5
S'XTN_8'
(tg9
g8
S'NM'
I5
Nt(g3
g5
S'XTN_9'
(tg9
g8
S'ST'
I199
Nt(g3
g5
S'XTN_10'
(tg9
g8
S'ST'
I4
Nt(g3
g5
S'XTN_11'
(tg9
g8
S'ST'
I6
Nt(g3
g5
S'XTN_12'
(tg9
g8
S'ST'
I199
Ntt(I0
I-1
tg6
S'XTN'
I250
Nt(g3
g4
S'PID_15'
((g3
g5
S'CE_1'
(tg9
g8
S'ST'
I20
Nt(g3
g5
S'CE_2'
(tg9
g8
S'ST'
I199
Nt(g3
g5
S'CE_3'
(tg9
g8
S'ID'
I20
S'HL70396'
t(g3
g5
S'CE_4'
(tg9
g8
S'ST'
I20
Nt(g3
g5
S'CE_5'
(tg9
g8
S'ST'
I199
Nt(g3
g5
S'CE_6'
(tg9
g8
S'ID'
I20
S'HL70396'
tt(I0
I1
tg6
S'CE'
I478
S'HL70296'
t(g3
g4
S'PID_16'
((g3
g5
S'CE_1'
(tg9
g8
S'ST'
I20
Nt(g3
g5
S'CE_2'
(tg9
g8
S'ST'
I199
Nt(g3
g5
S'CE_3'
(tg9
g8
S'ID'
I20
S'HL70396'
t(g3
g5
S'CE_4'
(tg9
g8
S'ST'
I20
Nt(g3
g5
S'CE_5'
(tg9
g8
S'ST'
I199
Nt(g3
g5
S'CE_6'
(tg9
g8
S'ID'
I20
S'HL70396'
tt(I0
I1
tg6
S'CE'
I478
S'HL70002'
t(g3
g4
S'PID_17'
((g3
g5
S'CE_1'
(tg9
g8
S'ST'
I20
Nt(g3
g5
S'CE_2'
(tg9
g8
S'ST'
I199
Nt(g3
g5
S'CE_3'
(tg9
g8
S'ID'
I20
S'HL70396'
t(g3
g5
S'CE_4'
(tg9
g8
S'ST'
I20
Nt(g3
g5
S'CE_5'
(tg9
g8
S'ST'
I199
Nt(g3
g5
S'CE_6'
(tg9
g8
S'ID'
I20
S'HL70396'
tt(I0
I1
tg6
S'CE'
I478
S'HL70006'
t(g3
g4
S'PID_18'
((g3
g5
S'CX_1'
(tg7
g8
S'ST'
I15
Nt(g3
g5
S'CX_2'
(tg9
g8
S'ST'
I1
Nt(g3
g5
S'CX_3'
(tg9
g8
S'ID'
I3
S'HL70061'
t(g3
g4
S'CX_4'
((g3
g5
S'HD_1'
(tg7
g10
S'IS'
I20
S'HL70300'
t(g3
g5
S'HD_2'
(tg9
g10
S'ST'
I199
Nt(g3
g5
S'HD_3'
(tg9
g10
S'ID'
I6
S'HL70301'
ttg9
g8
S'HD'
I227
S'HL70363'
t(g3
g5
S'CX_5'
(tg9
g8
S'ID'
I5
S'HL70203'
t(g3
g4
S'CX_6'
((g3
g5
S'HD_1'
(tg9
g10
S'IS'
I20
S'HL70300'
t(g3
g5
S'HD_2'
(tg9
g10
S'ST'
I199
Nt(g3
g5
S'HD_3'
(tg9
g10
S'ID'
I6
S'HL70301'
ttg9
g8
S'HD'
I227
Nt(g3
g5
S'CX_7'
(tg9
g8
S'DT'
I8
Nt(g3
g5
S'CX_8'
(tg9
g8
S'DT'
I8
Nt(g3
g4
S'CX_9'
((g3
g5
S'CWE_1'
(tg9
g10
S'ST'
I20
Nt(g3
g5
S'CWE_2'
(tg9
g10
S'ST'
I199
Nt(g3
g5
S'CWE_3'
(tg9
g10
S'ID'
I20
S'HL70396'
t(g3
g5
S'CWE_4'
(tg9
g10
S'ST'
I20
Nt(g3
g5
S'CWE_5'
(tg9
g10
S'ST'
I199
Nt(g3
g5
S'CWE_6'
(tg9
g10
S'ID'
I20
S'HL70396'
t(g3
g5
S'CWE_7'
(tg9
g10
S'ST'
I10
Nt(g3
g5
S'CWE_8'
(tg9
g10
S'ST'
I10
Nt(g3
g5
S'CWE_9'
(tg9
g10
S'ST'
I199
Nttg9
g8
S'CWE'
I706
Nt(g3
g4
S'CX_10'
((g3
g5
S'CWE_1'
(tg9
g10
S'ST'
I20
Nt(g3
g5
S'CWE_2'
(tg9
g10
S'ST'
I199
Nt(g3
g5
S'CWE_3'
(tg9
g10
S'ID'
I20
S'HL70396'
t(g3
g5
S'CWE_4'
(tg9
g10
S'ST'
I20
Nt(g3
g5
S'CWE_5'
(tg9
g10
S'ST'
I199
Nt(g3
g5
S'CWE_6'
(tg9
g10
S'ID'
I20
S'HL70396'
t(g3
g5
S'CWE_7'
(tg9
g10
S'ST'
I10
Nt(g3
g5
S'CWE_8'
(tg9
g10
S'ST'
I10
Nt(g3
g5
S'CWE_9'
(tg9
g10
S'ST'
I199
Nttg9
g8
S'CWE'
I705
Ntt(I0
I1
tg6
S'CX'
I1905
Nt(g3
g5
S'PID_19'
(t(I0
I-1
tg6
S'ST'
I16
Nt(g3
g4
S'PID_20'
((g3
g5
S'DLN_1'
(tg7
g8
S'ST'
I20
Nt(g3
g5
S'DLN_2'
(tg9
g8
S'IS'
I20
S'HL70333'
t(g3
g5
S'DLN_3'
(tg9
g8
S'DT'
I24
Ntt(I0
I-1
tg6
S'DLN'
I64
Nt(g3
g4
S'PID_21'
((g3
g5
S'CX_1'
(tg7
g8
S'ST'
I15
Nt(g3
g5
S'CX_2'
(tg9
g8
S'ST'
I1
Nt(g3
g5
S'CX_3'
(tg9
g8
S'ID'
I3
S'HL70061'
t(g3
g4
S'CX_4'
((g3
g5
S'HD_1'
(tg7
g10
S'IS'
I20
S'HL70300'
t(g3
g5
S'HD_2'
(tg9
g10
S'ST'
I199
Nt(g3
g5
S'HD_3'
(tg9
g10
S'ID'
I6
S'HL70301'
ttg7
g8
S'HD'
I227
S'HL70363'
t(g3
g5
S'CX_5'
(tg9
g8
S'ID'
I5
S'HL70203'
t(g3
g4
S'CX_6'
((g3
g5
S'HD_1'
(tg9
g10
S'IS'
I20
S'HL70300'
t(g3
g5
S'HD_2'
(tg9
g10
S'ST'
I199
Nt(g3
g5
S'HD_3'
(tg9
g10
S'ID'
I6
S'HL70301'
ttg9
g8
S'HD'
I227
Nt(g3
g5
S'CX_7'
(tg9
g8
S'DT'
I8
Nt(g3
g5
S'CX_8'
(tg9
g8
S'DT'
I8
Nt(g3
g4
S'CX_9'
((g3
g5
S'CWE_1'
(tg9
g10
S'ST'
I20
Nt(g3
g5
S'CWE_2'
(tg9
g10
S'ST'
I199
Nt(g3
g5
S'CWE_3'
(tg9
g10
S'ID'
I20
S'HL70396'
t(g3
g5
S'CWE_4'
(tg9
g10
S'ST'
I20
Nt(g3
g5
S'CWE_5'
(tg9
g10
S'ST'
I199
Nt(g3
g5
S'CWE_6'
(tg9
g10
S'ID'
I20
S'HL70396'
t(g3
g5
S'CWE_7'
(tg9
g10
S'ST'
I10
Nt(g3
g5
S'CWE_8'
(tg9
g10
S'ST'
I10
Nt(g3
g5
S'CWE_9'
(tg9
g10
S'ST'
I199
Nttg9
g8
S'CWE'
I706
Nt(g3
g4
S'CX_10'
((g3
g5
S'CWE_1'
(tg9
g10
S'ST'
I20
Nt(g3
g5
S'CWE_2'
(tg9
g10
S'ST'
I199
Nt(g3
g5
S'CWE_3'
(tg9
g10
S'ID'
I20
S'HL70396'
t(g3
g5
S'CWE_4'
(tg9
g10
S'ST'
I20
Nt(g3
g5
S'CWE_5'
(tg9
g10
S'ST'
I199
Nt(g3
g5
S'CWE_6'
(tg9
g10
S'ID'
I20
S'HL70396'
t(g3
g5
S'CWE_7'
(tg9
g10
S'ST'
I10
Nt(g3
g5
S'CWE_8'
(tg9
g10
S'ST'
I10
Nt(g3
g5
S'CWE_9'
(tg9
g10
S'ST'
I199
Nttg9
g8
S'CWE'
I705
Ntt(I0
I-1
tg6
S'CX'
I1905
Nt(g3
g4
S'PID_22'
((g3
g5
S'CE_1'
(tg9
g8
S'ST'
I20
Nt(g3
g5
S'CE_2'
(tg9
g8
S'ST'
I199
Nt(g3
g5
S'CE_3'
(tg9
g8
S'ID'
I20
S'HL70396'
t(g3
g5
S'CE_4'
(tg9
g8
S'ST'
I20
Nt(g3
g5
S'CE_5'
(tg9
g8
S'ST'
I199
Nt(g3
g5
S'CE_6'
(tg9
g8
S'ID'
I20
S'HL70396'
tt(I0
I-1
tg6
S'CE'
I478
S'HL70189'
t(g3
g5
S'PID_23'
(t(I0
I1
tg6
S'ST'
I250
Nt(g3
g5
S'PID_24'
(t(I0
I1
tg6
S'ID'
I1
S'HL70136'
t(g3
g5
S'PID_25'
(t(I0
I1
tg6
S'NM'
I2
Nt(g3
g4
S'PID_26'
((g3
g5
S'CE_1'
(tg9
g8
S'ST'
I20
Nt(g3
g5
S'CE_2'
(tg9
g8
S'ST'
I199
Nt(g3
g5
S'CE_3'
(tg9
g8
S'ID'
I20
S'HL70396'
t(g3
g5
S'CE_4'
(tg9
g8
S'ST'
I20
Nt(g3
g5
S'CE_5'
(tg9
g8
S'ST'
I199
Nt(g3
g5
S'CE_6'
(tg9
g8
S'ID'
I20
S'HL70396'
tt(I0
I-1
tg6
S'CE'
I478
S'HL70171'
t(g3
g4
S'PID_27'
((g3
g5
S'CE_1'
(tg9
g8
S'ST'
I20
Nt(g3
g5
S'CE_2'
(tg9
g8
S'ST'
I199
Nt(g3
g5
S'CE_3'
(tg9
g8
S'ID'
I20
S'HL70396'
t(g3
g5
S'CE_4'
(tg9
g8
S'ST'
I20
Nt(g3
g5
S'CE_5'
(tg9
g8
S'ST'
I199
Nt(g3
g5
S'CE_6'
(tg9
g8
S'ID'
I20
S'HL70396'
tt(I0
I1
tg6
S'CE'
I478
S'HL70172'
t(g3
g4
S'PID_28'
((g3
g5
S'CE_1'
(tg9
g8
S'ST'
I20
Nt(g3
g5
S'CE_2'
(tg9
g8
S'ST'
I199
Nt(g3
g5
S'CE_3'
(tg9
g8
S'ID'
I20
S'HL70396'
t(g3
g5
S'CE_4'
(tg9
g8
S'ST'
I20
Nt(g3
g5
S'CE_5'
(tg9
g8
S'ST'
I199
Nt(g3
g5
S'CE_6'
(tg9
g8
S'ID'
I20
S'HL70396'
tt(I0
I0
tg6
S'CE'
I478
S'HL70212'
t(g3
g4
S'PID_29'
((g3
g5
S'TS_1'
(tg7
g8
S'DTM'
I24
Nt(g3
g5
S'TS_2'
(tg9
g8
S'ST'
I1
S'HL70529'
tt(I0
I1
tg6
S'TS'
I26
Nt(g3
g5
S'PID_30'
(t(I0
I1
tg6
S'ID'
I1
S'HL70136'
t(g3
g5
S'PID_31'
(t(I0
I1
tg6
S'ID'
I1
S'HL70136'
t(g3
g5
S'PID_32'
(t(I0
I-1
tg6
S'IS'
I20
S'HL70445'
t(g3
g4
S'PID_33'
((g3
g5
S'TS_1'
(tg7
g8
S'DTM'
I24
Nt(g3
g5
S'TS_2'
(tg9
g8
S'ST'
I1
S'HL70529'
tt(I0
I1
tg6
S'TS'
I26
Nt(g3
g4
S'PID_34'
((g3
g5
S'HD_1'
(tg9
g8
S'IS'
I20
S'HL70300'
t(g3
g5
S'HD_2'
(tg9
g8
S'ST'
I199
Nt(g3
g5
S'HD_3'
(tg9
g8
S'ID'
I6
S'HL70301'
tt(I0
I1
tg6
S'HD'
I241
Nt(g3
g4
S'PID_35'
((g3
g5
S'CE_1'
(tg9
g8
S'ST'
I20
Nt(g3
g5
S'CE_2'
(tg9
g8
S'ST'
I199
Nt(g3
g5
S'CE_3'
(tg9
g8
S'ID'
I20
S'HL70396'
t(g3
g5
S'CE_4'
(tg9
g8
S'ST'
I20
Nt(g3
g5
S'CE_5'
(tg9
g8
S'ST'
I199
Nt(g3
g5
S'CE_6'
(tg9
g8
S'ID'
I20
S'HL70396'
tt(I0
I1
tg6
S'CE'
I478
S'HL70446'
t(g3
g4
S'PID_36'
((g3
g5
S'CE_1'
(tg9
g8
S'ST'
I20
Nt(g3
g5
S'CE_2'
(tg9
g8
S'ST'
I199
Nt(g3
g5
S'CE_3'
(tg9
g8
S'ID'
I20
S'HL70396'
t(g3
g5
S'CE_4'
(tg9
g8
S'ST'
I20
Nt(g3
g5
S'CE_5'
(tg9
g8
S'ST'
I199
Nt(g3
g5
S'CE_6'
(tg9
g8
S'ID'
I20
S'HL70396'
tt(I0
I1
tg6
S'CE'
I478
S'HL70447'
t(g3
g5
S'PID_37'
(t(I0
I1
tg6
S'ST'
I80
Nt(g3
g4
S'PID_38'
((g3
g5
S'CE_1'
(tg9
g8
S'ST'
I20
Nt(g3
g5
S'CE_2'
(tg9
g8
S'ST'
I199
Nt(g3
g5
S'CE_3'
(tg9
g8
S'ID'
I20
S'HL70396'
t(g3
g5
S'CE_4'
(tg9
g8
S'ST'
I20
Nt(g3
g5
S'CE_5'
(tg9
g8
S'ST'
I199
Nt(g3
g5
S'CE_6'
(tg9
g8
S'ID'
I20
S'HL70396'
tt(I0
I1
tg6
S'CE'
I478
S'HL70429'
t(g3
g4
S'PID_39'
((g3
g5
S'CWE_1'
(tg9
g8
S'ST'
I20
Nt(g3
g5
S'CWE_2'
(tg9
g8
S'ST'
I199
Nt(g3
g5
S'CWE_3'
(tg9
g8
S'ID'
I20
S'HL70396'
t(g3
g5
S'CWE_4'
(tg9
g8
S'ST'
I20
Nt(g3
g5
S'CWE_5'
(tg9
g8
S'ST'
I199
Nt(g3
g5
S'CWE_6'
(tg9
g8
S'ID'
I20
S'HL70396'
t(g3
g5
S'CWE_7'
(tg9
g8
S'ST'
I10
Nt(g3
g5
S'CWE_8'
(tg9
g8
S'ST'
I10
Nt(g3
g5
S'CWE_9'
(tg9
g8
S'ST'
I199
Ntt(I0
I-1
tg6
S'CWE'
I697
S'HL70171'
tt(I1
I1
tg11
t(g3
g4
S'PD1'
((g3
g5
S'PD1_1'
(t(I0
I-1
tg6
S'IS'
I2
S'HL70223'
t(g3
g5
S'PD1_2'
(t(I0
I1
tg6
S'IS'
I2
S'HL70220'
t(g3
g4
S'PD1_3'
((g3
g5
S'XON_1'
(tg9
g8
S'ST'
I50
Nt(g3
g5
S'XON_2'
(tg9
g8
S'IS'
I20
S'HL70204'
t(g3
g5
S'XON_3'
(tg9
g8
S'NM'
I4
Nt(g3
g5
S'XON_4'
(tg9
g8
S'NM'
I1
Nt(g3
g5
S'XON_5'
(tg9
g8
S'ID'
I3
S'HL70061'
t(g3
g4
S'XON_6'
((g3
g5
S'HD_1'
(tg9
g10
S'IS'
I20
S'HL70300'
t(g3
g5
S'HD_2'
(tg9
g10
S'ST'
I199
Nt(g3
g5
S'HD_3'
(tg9
g10
S'ID'
I6
S'HL70301'
ttg9
g8
S'HD'
I227
S'HL70363'
t(g3
g5
S'XON_7'
(tg9
g8
S'ID'
I5
S'HL70203'
t(g3
g4
S'XON_8'
((g3
g5
S'HD_1'
(tg9
g10
S'IS'
I20
S'HL70300'
t(g3
g5
S'HD_2'
(tg9
g10
S'ST'
I199
Nt(g3
g5
S'HD_3'
(tg9
g10
S'ID'
I6
S'HL70301'
ttg9
g8
S'HD'
I227
Nt(g3
g5
S'XON_9'
(tg9
g8
S'ID'
I1
S'HL70465'
t(g3
g5
S'XON_10'
(tg9
g8
S'ST'
I20
Ntt(I0
I-1
tg6
S'XON'
I250
Nt(g3
g4
S'PD1_4'
((g3
g5
S'XCN_1'
(tg9
g8
S'ST'
I15
Nt(g3
g4
S'XCN_2'
((g3
g5
S'FN_1'
(tg7
g10
S'ST'
I50
Nt(g3
g5
S'FN_2'
(tg9
g10
S'ST'
I20
Nt(g3
g5
S'FN_3'
(tg9
g10
S'ST'
I50
Nt(g3
g5
S'FN_4'
(tg9
g10
S'ST'
I20
Nt(g3
g5
S'FN_5'
(tg9
g10
S'ST'
I50
Nttg9
g8
S'FN'
I194
Nt(g3
g5
S'XCN_3'
(tg9
g8
S'ST'
I30
Nt(g3
g5
S'XCN_4'
(tg9
g8
S'ST'
I30
Nt(g3
g5
S'XCN_5'
(tg9
g8
S'ST'
I20
Nt(g3
g5
S'XCN_6'
(tg9
g8
S'ST'
I20
Nt(g3
g5
S'XCN_7'
(tg9
g8
S'IS'
I5
S'HL70360'
t(g3
g5
S'XCN_8'
(tg9
g8
S'IS'
I4
S'HL70297'
t(g3
g4
S'XCN_9'
((g3
g5
S'HD_1'
(tg9
g10
S'IS'
I20
S'HL70300'
t(g3
g5
S'HD_2'
(tg9
g10
S'ST'
I199
Nt(g3
g5
S'HD_3'
(tg9
g10
S'ID'
I6
S'HL70301'
ttg9
g8
S'HD'
I227
S'HL70363'
t(g3
g5
S'XCN_10'
(tg9
g8
S'ID'
I1
S'HL70200'
t(g3
g5
S'XCN_11'
(tg9
g8
S'ST'
I1
Nt(g3
g5
S'XCN_12'
(tg9
g8
S'ID'
I3
S'HL70061'
t(g3
g5
S'XCN_13'
(tg9
g8
S'ID'
I5
S'HL70203'
t(g3
g4
S'XCN_14'
((g3
g5
S'HD_1'
(tg9
g10
S'IS'
I20
S'HL70300'
t(g3
g5
S'HD_2'
(tg9
g10
S'ST'
I199
Nt(g3
g5
S'HD_3'
(tg9
g10
S'ID'
I6
S'HL70301'
ttg9
g8
S'HD'
I227
Nt(g3
g5
S'XCN_15'
(tg9
g8
S'ID'
I1
S'HL70465'
t(g3
g4
S'XCN_16'
((g3
g5
S'CE_1'
(tg9
g10
S'ST'
I20
Nt(g3
g5
S'CE_2'
(tg9
g10
S'ST'
I199
Nt(g3
g5
S'CE_3'
(tg9
g10
S'ID'
I20
S'HL70396'
t(g3
g5
S'CE_4'
(tg9
g10
S'ST'
I20
Nt(g3
g5
S'CE_5'
(tg9
g10
S'ST'
I199
Nt(g3
g5
S'CE_6'
(tg9
g10
S'ID'
I20
S'HL70396'
ttg9
g8
S'CE'
I483
S'HL70448'
t(g3
g4
S'XCN_17'
((g3
g5
S'DR_1'
(tg9
g10
S'TS'
I26
Nt(g3
g5
S'DR_2'
(tg9
g10
S'TS'
I26
Nttg9
g8
S'DR'
I53
Nt(g3
g5
S'XCN_18'
(tg9
g8
S'ID'
I1
S'HL70444'
t(g3
g4
S'XCN_19'
((g3
g5
S'TS_1'
(tg7
g10
S'DTM'
I24
Nt(g3
g5
S'TS_2'
(tg9
g10
S'ST'
I1
S'HL70529'
ttg9
g8
S'TS'
I26
Nt(g3
g4
S'XCN_20'
((g3
g5
S'TS_1'
(tg7
g10
S'DTM'
I24
Nt(g3
g5
S'TS_2'
(tg9
g10
S'ST'
I1
S'HL70529'
ttg9
g8
S'TS'
I26
Nt(g3
g5
S'XCN_21'
(tg9
g8
S'ST'
I199
Nt(g3
g4
S'XCN_22'
((g3
g5
S'CWE_1'
(tg9
g10
S'ST'
I20
Nt(g3
g5
S'CWE_2'
(tg9
g10
S'ST'
I199
Nt(g3
g5
S'CWE_3'
(tg9
g10
S'ID'
I20
S'HL70396'
t(g3
g5
S'CWE_4'
(tg9
g10
S'ST'
I20
Nt(g3
g5
S'CWE_5'
(tg9
g10
S'ST'
I199
Nt(g3
g5
S'CWE_6'
(tg9
g10
S'ID'
I20
S'HL70396'
t(g3
g5
S'CWE_7'
(tg9
g10
S'ST'
I10
Nt(g3
g5
S'CWE_8'
(tg9
g10
S'ST'
I10
Nt(g3
g5
S'CWE_9'
(tg9
g10
S'ST'
I199
Nttg9
g8
S'CWE'
I705
Nt(g3
g4
S'XCN_23'
((g3
g5
S'CWE_1'
(tg9
g10
S'ST'
I20
Nt(g3
g5
S'CWE_2'
(tg9
g10
S'ST'
I199
Nt(g3
g5
S'CWE_3'
(tg9
g10
S'ID'
I20
S'HL70396'
t(g3
g5
S'CWE_4'
(tg9
g10
S'ST'
I20
Nt(g3
g5
S'CWE_5'
(tg9
g10
S'ST'
I199
Nt(g3
g5
S'CWE_6'
(tg9
g10
S'ID'
I20
S'HL70396'
t(g3
g5
S'CWE_7'
(tg9
g10
S'ST'
I10
Nt(g3
g5
S'CWE_8'
(tg9
g10
S'ST'
I10
Nt(g3
g5
S'CWE_9'
(tg9
g10
S'ST'
I199
Nttg9
g8
S'CWE'
I705
Ntt(I0
I1
tg6
S'XCN'
I309
Nt(g3
g5
S'PD1_5'
(t(I0
I1
tg6
S'IS'
I2
S'HL70231'
t(g3
g5
S'PD1_6'
(t(I0
I1
tg6
S'IS'
I2
S'HL70295'
t(g3
g5
S'PD1_7'
(t(I0
I1
tg6
S'IS'
I2
S'HL70315'
t(g3
g5
S'PD1_8'
(t(I0
I1
tg6
S'IS'
I2
S'HL70316'
t(g3
g5
S'PD1_9'
(t(I0
I1
tg6
S'ID'
I1
S'HL70136'
t(g3
g4
S'PD1_10'
((g3
g5
S'CX_1'
(tg7
g8
S'ST'
I15
Nt(g3
g5
S'CX_2'
(tg9
g8
S'ST'
I1
Nt(g3
g5
S'CX_3'
(tg9
g8
S'ID'
I3
S'HL70061'
t(g3
g4
S'CX_4'
((g3
g5
S'HD_1'
(tg7
g10
S'IS'
I20
S'HL70300'
t(g3
g5
S'HD_2'
(tg9
g10
S'ST'
I199
Nt(g3
g5
S'HD_3'
(tg9
g10
S'ID'
I6
S'HL70301'
ttg7
g8
S'HD'
I227
S'HL70363'
t(g3
g5
S'CX_5'
(tg9
g8
S'ID'
I5
S'HL70203'
t(g3
g4
S'CX_6'
((g3
g5
S'HD_1'
(tg9
g10
S'IS'
I20
S'HL70300'
t(g3
g5
S'HD_2'
(tg9
g10
S'ST'
I199
Nt(g3
g5
S'HD_3'
(tg9
g10
S'ID'
I6
S'HL70301'
ttg9
g8
S'HD'
I227
Nt(g3
g5
S'CX_7'
(tg9
g8
S'DT'
I8
Nt(g3
g5
S'CX_8'
(tg9
g8
S'DT'
I8
Nt(g3
g4
S'CX_9'
((g3
g5
S'CWE_1'
(tg9
g10
S'ST'
I20
Nt(g3
g5
S'CWE_2'
(tg9
g10
S'ST'
I199
Nt(g3
g5
S'CWE_3'
(tg9
g10
S'ID'
I20
S'HL70396'
t(g3
g5
S'CWE_4'
(tg9
g10
S'ST'
I20
Nt(g3
g5
S'CWE_5'
(tg9
g10
S'ST'
I199
Nt(g3
g5
S'CWE_6'
(tg9
g10
S'ID'
I20
S'HL70396'
t(g3
g5
S'CWE_7'
(tg9
g10
S'ST'
I10
Nt(g3
g5
S'CWE_8'
(tg9
g10
S'ST'
I10
Nt(g3
g5
S'CWE_9'
(tg9
g10
S'ST'
I199
Nttg9
g8
S'CWE'
I706
Nt(g3
g4
S'CX_10'
((g3
g5
S'CWE_1'
(tg9
g10
S'ST'
I20
Nt(g3
g5
S'CWE_2'
(tg9
g10
S'ST'
I199
Nt(g3
g5
S'CWE_3'
(tg9
g10
S'ID'
I20
S'HL70396'
t(g3
g5
S'CWE_4'
(tg9
g10
S'ST'
I20
Nt(g3
g5
S'CWE_5'
(tg9
g10
S'ST'
I199
Nt(g3
g5
S'CWE_6'
(tg9
g10
S'ID'
I20
S'HL70396'
t(g3
g5
S'CWE_7'
(tg9
g10
S'ST'
I10
Nt(g3
g5
S'CWE_8'
(tg9
g10
S'ST'
I10
Nt(g3
g5
S'CWE_9'
(tg9
g10
S'ST'
I199
Nttg9
g8
S'CWE'
I705
Ntt(I0
I-1
tg6
S'CX'
I1905
Nt(g3
g4
S'PD1_11'
((g3
g5
S'CE_1'
(tg9
g8
S'ST'
I20
Nt(g3
g5
S'CE_2'
(tg9
g8
S'ST'
I199
Nt(g3
g5
S'CE_3'
(tg9
g8
S'ID'
I20
S'HL70396'
t(g3
g5
S'CE_4'
(tg9
g8
S'ST'
I20
Nt(g3
g5
S'CE_5'
(tg9
g8
S'ST'
I199
Nt(g3
g5
S'CE_6'
(tg9
g8
S'ID'
I20
S'HL70396'
tt(I0
I1
tg6
S'CE'
I478
S'HL70215'
t(g3
g5
S'PD1_12'
(t(I0
I1
tg6
S'ID'
I1
S'HL70136'
t(g3
g5
S'PD1_13'
(t(I0
I1
tg6
S'DT'
I8
Nt(g3
g4
S'PD1_14'
((g3
g5
S'XON_1'
(tg9
g8
S'ST'
I50
Nt(g3
g5
S'XON_2'
(tg9
g8
S'IS'
I20
S'HL70204'
t(g3
g5
S'XON_3'
(tg9
g8
S'NM'
I4
Nt(g3
g5
S'XON_4'
(tg9
g8
S'NM'
I1
Nt(g3
g5
S'XON_5'
(tg9
g8
S'ID'
I3
S'HL70061'
t(g3
g4
S'XON_6'
((g3
g5
S'HD_1'
(tg9
g10
S'IS'
I20
S'HL70300'
t(g3
g5
S'HD_2'
(tg9
g10
S'ST'
I199
Nt(g3
g5
S'HD_3'
(tg9
g10
S'ID'
I6
S'HL70301'
ttg9
g8
S'HD'
I227
S'HL70363'
t(g3
g5
S'XON_7'
(tg9
g8
S'ID'
I5
S'HL70203'
t(g3
g4
S'XON_8'
((g3
g5
S'HD_1'
(tg9
g10
S'IS'
I20
S'HL70300'
t(g3
g5
S'HD_2'
(tg9
g10
S'ST'
I199
Nt(g3
g5
S'HD_3'
(tg9
g10
S'ID'
I6
S'HL70301'
ttg9
g8
S'HD'
I227
Nt(g3
g5
S'XON_9'
(tg9
g8
S'ID'
I1
S'HL70465'
t(g3
g5
S'XON_10'
(tg9
g8
S'ST'
I20
Ntt(I0
I-1
tg6
S'XON'
I250
Nt(g3
g4
S'PD1_15'
((g3
g5
S'CE_1'
(tg9
g8
S'ST'
I20
Nt(g3
g5
S'CE_2'
(tg9
g8
S'ST'
I199
Nt(g3
g5
S'CE_3'
(tg9
g8
S'ID'
I20
S'HL70396'
t(g3
g5
S'CE_4'
(tg9
g8
S'ST'
I20
Nt(g3
g5
S'CE_5'
(tg9
g8
S'ST'
I199
Nt(g3
g5
S'CE_6'
(tg9
g8
S'ID'
I20
S'HL70396'
tt(I0
I-1
tg6
S'CE'
I478
S'HL70435'
t(g3
g5
S'PD1_16'
(t(I0
I1
tg6
S'IS'
I1
S'HL70441'
t(g3
g5
S'PD1_17'
(t(I0
I1
tg6
S'DT'
I8
Nt(g3
g5
S'PD1_18'
(t(I0
I1
tg6
S'DT'
I8
Nt(g3
g5
S'PD1_19'
(t(I0
I1
tg6
S'IS'
I5
S'HL70140'
t(g3
g5
S'PD1_20'
(t(I0
I1
tg6
S'IS'
I2
S'HL70141'
t(g3
g5
S'PD1_21'
(t(I0
I1
tg6
S'IS'
I3
S'HL70142'
tt(I0
I1
tg11
t(g3
g4
S'NK1'
((g3
g5
S'NK1_1'
(t(I1
I1
tg6
S'SI'
I4
Nt(g3
g4
S'NK1_2'
((g3
g4
S'XPN_1'
((g3
g5
S'FN_1'
(tg7
g10
S'ST'
I50
Nt(g3
g5
S'FN_2'
(tg9
g10
S'ST'
I20
Nt(g3
g5
S'FN_3'
(tg9
g10
S'ST'
I50
Nt(g3
g5
S'FN_4'
(tg9
g10
S'ST'
I20
Nt(g3
g5
S'FN_5'
(tg9
g10
S'ST'
I50
Nttg9
g8
S'FN'
I194
Nt(g3
g5
S'XPN_2'
(tg9
g8
S'ST'
I30
Nt(g3
g5
S'XPN_3'
(tg9
g8
S'ST'
I30
Nt(g3
g5
S'XPN_4'
(tg9
g8
S'ST'
I20
Nt(g3
g5
S'XPN_5'
(tg9
g8
S'ST'
I20
Nt(g3
g5
S'XPN_6'
(tg9
g8
S'IS'
I6
S'HL70360'
t(g3
g5
S'XPN_7'
(tg9
g8
S'ID'
I1
S'HL70200'
t(g3
g5
S'XPN_8'
(tg9
g8
S'ID'
I1
S'HL70465'
t(g3
g4
S'XPN_9'
((g3
g5
S'CE_1'
(tg9
g10
S'ST'
I20
Nt(g3
g5
S'CE_2'
(tg9
g10
S'ST'
I199
Nt(g3
g5
S'CE_3'
(tg9
g10
S'ID'
I20
S'HL70396'
t(g3
g5
S'CE_4'
(tg9
g10
S'ST'
I20
Nt(g3
g5
S'CE_5'
(tg9
g10
S'ST'
I199
Nt(g3
g5
S'CE_6'
(tg9
g10
S'ID'
I20
S'HL70396'
ttg9
g8
S'CE'
I483
S'HL70448'
t(g3
g4
S'XPN_10'
((g3
g5
S'DR_1'
(tg9
g10
S'TS'
I26
Nt(g3
g5
S'DR_2'
(tg9
g10
S'TS'
I26
Nttg9
g8
S'DR'
I53
Nt(g3
g5
S'XPN_11'
(tg9
g8
S'ID'
I1
S'HL70444'
t(g3
g4
S'XPN_12'
((g3
g5
S'TS_1'
(tg7
g10
S'DTM'
I24
Nt(g3
g5
S'TS_2'
(tg9
g10
S'ST'
I1
S'HL70529'
ttg9
g8
S'TS'
I26
Nt(g3
g4
S'XPN_13'
((g3
g5
S'TS_1'
(tg7
g10
S'DTM'
I24
Nt(g3
g5
S'TS_2'
(tg9
g10
S'ST'
I1
S'HL70529'
ttg9
g8
S'TS'
I26
Nt(g3
g5
S'XPN_14'
(tg9
g8
S'ST'
I199
Ntt(I0
I-1
tg6
S'XPN'
I294
Nt(g3
g4
S'NK1_3'
((g3
g5
S'CE_1'
(tg9
g8
S'ST'
I20
Nt(g3
g5
S'CE_2'
(tg9
g8
S'ST'
I199
Nt(g3
g5
S'CE_3'
(tg9
g8
S'ID'
I20
S'HL70396'
t(g3
g5
S'CE_4'
(tg9
g8
S'ST'
I20
Nt(g3
g5
S'CE_5'
(tg9
g8
S'ST'
I199
Nt(g3
g5
S'CE_6'
(tg9
g8
S'ID'
I20
S'HL70396'
tt(I0
I1
tg6
S'CE'
I478
S'HL70063'
t(g3
g4
S'NK1_4'
((g3
g4
S'XAD_1'
((g3
g5
S'SAD_1'
(tg9
g10
S'ST'
I120
Nt(g3
g5
S'SAD_2'
(tg9
g10
S'ST'
I50
Nt(g3
g5
S'SAD_3'
(tg9
g10
S'ST'
I12
Nttg9
g8
S'SAD'
I184
Nt(g3
g5
S'XAD_2'
(tg9
g8
S'ST'
I120
Nt(g3
g5
S'XAD_3'
(tg9
g8
S'ST'
I50
Nt(g3
g5
S'XAD_4'
(tg9
g8
S'ST'
I50
Nt(g3
g5
S'XAD_5'
(tg9
g8
S'ST'
I12
Nt(g3
g5
S'XAD_6'
(tg9
g8
S'ID'
I3
S'HL70399'
t(g3
g5
S'XAD_7'
(tg9
g8
S'ID'
I3
S'HL70190'
t(g3
g5
S'XAD_8'
(tg9
g8
S'ST'
I50
Nt(g3
g5
S'XAD_9'
(tg9
g8
S'IS'
I20
S'HL70289'
t(g3
g5
S'XAD_10'
(tg9
g8
S'IS'
I20
S'HL70288'
t(g3
g5
S'XAD_11'
(tg9
g8
S'ID'
I1
S'HL70465'
t(g3
g4
S'XAD_12'
((g3
g5
S'DR_1'
(tg9
g10
S'TS'
I26
Nt(g3
g5
S'DR_2'
(tg9
g10
S'TS'
I26
Nttg9
g8
S'DR'
I53
Nt(g3
g4
S'XAD_13'
((g3
g5
S'TS_1'
(tg7
g10
S'DTM'
I24
Nt(g3
g5
S'TS_2'
(tg9
g10
S'ST'
I1
S'HL70529'
ttg9
g8
S'TS'
I26
Nt(g3
g4
S'XAD_14'
((g3
g5
S'TS_1'
(tg7
g10
S'DTM'
I24
Nt(g3
g5
S'TS_2'
(tg9
g10
S'ST'
I1
S'HL70529'
ttg9
g8
S'TS'
I26
Ntt(I0
I-1
tg6
S'XAD'
I513
Nt(g3
g4
S'NK1_5'
((g3
g5
S'XTN_1'
(tg9
g8
S'ST'
I199
Nt(g3
g5
S'XTN_2'
(tg9
g8
S'ID'
I3
S'HL70201'
t(g3
g5
S'XTN_3'
(tg9
g8
S'ID'
I8
S'HL70202'
t(g3
g5
S'XTN_4'
(tg9
g8
S'ST'
I199
Nt(g3
g5
S'XTN_5'
(tg9
g8
S'NM'
I3
Nt(g3
g5
S'XTN_6'
(tg9
g8
S'NM'
I5
Nt(g3
g5
S'XTN_7'
(tg9
g8
S'NM'
I9
Nt(g3
g5
S'XTN_8'
(tg9
g8
S'NM'
I5
Nt(g3
g5
S'XTN_9'
(tg9
g8
S'ST'
I199
Nt(g3
g5
S'XTN_10'
(tg9
g8
S'ST'
I4
Nt(g3
g5
S'XTN_11'
(tg9
g8
S'ST'
I6
Nt(g3
g5
S'XTN_12'
(tg9
g8
S'ST'
I199
Ntt(I0
I1
tg6
S'XTN'
I250
Nt(g3
g4
S'NK1_6'
((g3
g5
S'XTN_1'
(tg9
g8
S'ST'
I199
Nt(g3
g5
S'XTN_2'
(tg9
g8
S'ID'
I3
S'HL70201'
t(g3
g5
S'XTN_3'
(tg9
g8
S'ID'
I8
S'HL70202'
t(g3
g5
S'XTN_4'
(tg9
g8
S'ST'
I199
Nt(g3
g5
S'XTN_5'
(tg9
g8
S'NM'
I3
Nt(g3
g5
S'XTN_6'
(tg9
g8
S'NM'
I5
Nt(g3
g5
S'XTN_7'
(tg9
g8
S'NM'
I9
Nt(g3
g5
S'XTN_8'
(tg9
g8
S'NM'
I5
Nt(g3
g5
S'XTN_9'
(tg9
g8
S'ST'
I199
Nt(g3
g5
S'XTN_10'
(tg9
g8
S'ST'
I4
Nt(g3
g5
S'XTN_11'
(tg9
g8
S'ST'
I6
Nt(g3
g5
S'XTN_12'
(tg9
g8
S'ST'
I199
Ntt(I0
I1
tg6
S'XTN'
I250
Nt(g3
g4
S'NK1_7'
((g3
g5
S'CE_1'
(tg9
g8
S'ST'
I20
Nt(g3
g5
S'CE_2'
(tg9
g8
S'ST'
I199
Nt(g3
g5
S'CE_3'
(tg9
g8
S'ID'
I20
S'HL70396'
t(g3
g5
S'CE_4'
(tg9
g8
S'ST'
I20
Nt(g3
g5
S'CE_5'
(tg9
g8
S'ST'
I199
Nt(g3
g5
S'CE_6'
(tg9
g8
S'ID'
I20
S'HL70396'
tt(I0
I1
tg6
S'CE'
I478
S'HL70131'
t(g3
g5
S'NK1_8'
(t(I0
I1
tg6
S'DT'
I8
Nt(g3
g5
S'NK1_9'
(t(I0
I1
tg6
S'DT'
I8
Nt(g3
g5
S'NK1_10'
(t(I0
I1
tg6
S'ST'
I60
Nt(g3
g4
S'NK1_11'
((g3
g5
S'JCC_1'
(tg9
g8
S'IS'
I20
S'HL70327'
t(g3
g5
S'JCC_2'
(tg9
g8
S'IS'
I20
S'HL70328'
t(g3
g5
S'JCC_3'
(tg9
g8
S'TX'
I250
Ntt(I0
I1
tg6
S'JCC'
I290
Nt(g3
g4
S'NK1_12'
((g3
g5
S'CX_1'
(tg7
g8
S'ST'
I15
Nt(g3
g5
S'CX_2'
(tg9
g8
S'ST'
I1
Nt(g3
g5
S'CX_3'
(tg9
g8
S'ID'
I3
S'HL70061'
t(g3
g4
S'CX_4'
((g3
g5
S'HD_1'
(tg7
g10
S'IS'
I20
S'HL70300'
t(g3
g5
S'HD_2'
(tg9
g10
S'ST'
I199
Nt(g3
g5
S'HD_3'
(tg9
g10
S'ID'
I6
S'HL70301'
ttg7
g8
S'HD'
I227
S'HL70363'
t(g3
g5
S'CX_5'
(tg9
g8
S'ID'
I5
S'HL70203'
t(g3
g4
S'CX_6'
((g3
g5
S'HD_1'
(tg9
g10
S'IS'
I20
S'HL70300'
t(g3
g5
S'HD_2'
(tg9
g10
S'ST'
I199
Nt(g3
g5
S'HD_3'
(tg9
g10
S'ID'
I6
S'HL70301'
ttg9
g8
S'HD'
I227
Nt(g3
g5
S'CX_7'
(tg9
g8
S'DT'
I8
Nt(g3
g5
S'CX_8'
(tg9
g8
S'DT'
I8
Nt(g3
g4
S'CX_9'
((g3
g5
S'CWE_1'
(tg9
g10
S'ST'
I20
Nt(g3
g5
S'CWE_2'
(tg9
g10
S'ST'
I199
Nt(g3
g5
S'CWE_3'
(tg9
g10
S'ID'
I20
S'HL70396'
t(g3
g5
S'CWE_4'
(tg9
g10
S'ST'
I20
Nt(g3
g5
S'CWE_5'
(tg9
g10
S'ST'
I199
Nt(g3
g5
S'CWE_6'
(tg9
g10
S'ID'
I20
S'HL70396'
t(g3
g5
S'CWE_7'
(tg9
g10
S'ST'
I10
Nt(g3
g5
S'CWE_8'
(tg9
g10
S'ST'
I10
Nt(g3
g5
S'CWE_9'
(tg9
g10
S'ST'
I199
Nttg9
g8
S'CWE'
I706
Nt(g3
g4
S'CX_10'
((g3
g5
S'CWE_1'
(tg9
g10
S'ST'
I20
Nt(g3
g5
S'CWE_2'
(tg9
g10
S'ST'
I199
Nt(g3
g5
S'CWE_3'
(tg9
g10
S'ID'
I20
S'HL70396'
t(g3
g5
S'CWE_4'
(tg9
g10
S'ST'
I20
Nt(g3
g5
S'CWE_5'
(tg9
g10
S'ST'
I199
Nt(g3
g5
S'CWE_6'
(tg9
g10
S'ID'
I20
S'HL70396'
t(g3
g5
S'CWE_7'
(tg9
g10
S'ST'
I10
Nt(g3
g5
S'CWE_8'
(tg9
g10
S'ST'
I10
Nt(g3
g5
S'CWE_9'
(tg9
g10
S'ST'
I199
Nttg9
g8
S'CWE'
I705
Ntt(I0
I1
tg6
S'CX'
I1905
Nt(g3
g4
S'NK1_13'
((g3
g5
S'XON_1'
(tg9
g8
S'ST'
I50
Nt(g3
g5
S'XON_2'
(tg9
g8
S'IS'
I20
S'HL70204'
t(g3
g5
S'XON_3'
(tg9
g8
S'NM'
I4
Nt(g3
g5
S'XON_4'
(tg9
g8
S'NM'
I1
Nt(g3
g5
S'XON_5'
(tg9
g8
S'ID'
I3
S'HL70061'
t(g3
g4
S'XON_6'
((g3
g5
S'HD_1'
(tg9
g10
S'IS'
I20
S'HL70300'
t(g3
g5
S'HD_2'
(tg9
g10
S'ST'
I199
Nt(g3
g5
S'HD_3'
(tg9
g10
S'ID'
I6
S'HL70301'
ttg9
g8
S'HD'
I227
S'HL70363'
t(g3
g5
S'XON_7'
(tg9
g8
S'ID'
I5
S'HL70203'
t(g3
g4
S'XON_8'
((g3
g5
S'HD_1'
(tg9
g10
S'IS'
I20
S'HL70300'
t(g3
g5
S'HD_2'
(tg9
g10
S'ST'
I199
Nt(g3
g5
S'HD_3'
(tg9
g10
S'ID'
I6
S'HL70301'
ttg9
g8
S'HD'
I227
Nt(g3
g5
S'XON_9'
(tg9
g8
S'ID'
I1
S'HL70465'
t(g3
g5
S'XON_10'
(tg9
g8
S'ST'
I20
Ntt(I0
I1
tg6
S'XON'
I250
Nt(g3
g4
S'NK1_14'
((g3
g5
S'CE_1'
(tg9
g8
S'ST'
I20
Nt(g3
g5
S'CE_2'
(tg9
g8
S'ST'
I199
Nt(g3
g5
S'CE_3'
(tg9
g8
S'ID'
I20
S'HL70396'
t(g3
g5
S'CE_4'
(tg9
g8
S'ST'
I20
Nt(g3
g5
S'CE_5'
(tg9
g8
S'ST'
I199
Nt(g3
g5
S'CE_6'
(tg9
g8
S'ID'
I20
S'HL70396'
tt(I0
I1
tg6
S'CE'
I478
S'HL70002'
t(g3
g5
S'NK1_15'
(t(I0
I1
tg6
S'IS'
I1
S'HL70001'
t(g3
g4
S'NK1_16'
((g3
g5
S'TS_1'
(tg7
g8
S'DTM'
I24
Nt(g3
g5
S'TS_2'
(tg9
g8
S'ST'
I1
S'HL70529'
tt(I0
I1
tg6
S'TS'
I26
Nt(g3
g5
S'NK1_17'
(t(I0
I1
tg6
S'IS'
I2
S'HL70223'
t(g3
g5
S'NK1_18'
(t(I0
I1
tg6
S'IS'
I2
S'HL70009'
t(g3
g4
S'NK1_19'
((g3
g5
S'CE_1'
(tg9
g8
S'ST'
I20
Nt(g3
g5
S'CE_2'
(tg9
g8
S'ST'
I199
Nt(g3
g5
S'CE_3'
(tg9
g8
S'ID'
I20
S'HL70396'
t(g3
g5
S'CE_4'
(tg9
g8
S'ST'
I20
Nt(g3
g5
S'CE_5'
(tg9
g8
S'ST'
I199
Nt(g3
g5
S'CE_6'
(tg9
g8
S'ID'
I20
S'HL70396'
tt(I0
I1
tg6
S'CE'
I478
S'HL70171'
t(g3
g4
S'NK1_20'
((g3
g5
S'CE_1'
(tg9
g8
S'ST'
I20
Nt(g3
g5
S'CE_2'
(tg9
g8
S'ST'
I199
Nt(g3
g5
S'CE_3'
(tg9
g8
S'ID'
I20
S'HL70396'
t(g3
g5
S'CE_4'
(tg9
g8
S'ST'
I20
Nt(g3
g5
S'CE_5'
(tg9
g8
S'ST'
I199
Nt(g3
g5
S'CE_6'
(tg9
g8
S'ID'
I20
S'HL70396'
tt(I0
I1
tg6
S'CE'
I478
S'HL70296'
t(g3
g5
S'NK1_21'
(t(I0
I1
tg6
S'IS'
I2
S'HL70220'
t(g3
g4
S'NK1_22'
((g3
g5
S'CE_1'
(tg9
g8
S'ST'
I20
Nt(g3
g5
S'CE_2'
(tg9
g8
S'ST'
I199
Nt(g3
g5
S'CE_3'
(tg9
g8
S'ID'
I20
S'HL70396'
t(g3
g5
S'CE_4'
(tg9
g8
S'ST'
I20
Nt(g3
g5
S'CE_5'
(tg9
g8
S'ST'
I199
Nt(g3
g5
S'CE_6'
(tg9
g8
S'ID'
I20
S'HL70396'
tt(I0
I1
tg6
S'CE'
I478
S'HL70215'
t(g3
g5
S'NK1_23'
(t(I0
I1
tg6
S'ID'
I1
S'HL70136'
t(g3
g5
S'NK1_24'
(t(I0
I1
tg6
S'IS'
I2
S'HL70231'
t(g3
g4
S'NK1_25'
((g3
g5
S'CE_1'
(tg9
g8
S'ST'
I20
Nt(g3
g5
S'CE_2'
(tg9
g8
S'ST'
I199
Nt(g3
g5
S'CE_3'
(tg9
g8
S'ID'
I20
S'HL70396'
t(g3
g5
S'CE_4'
(tg9
g8
S'ST'
I20
Nt(g3
g5
S'CE_5'
(tg9
g8
S'ST'
I199
Nt(g3
g5
S'CE_6'
(tg9
g8
S'ID'
I20
S'HL70396'
tt(I0
I1
tg6
S'CE'
I478
S'HL70006'
t(g3
g4
S'NK1_26'
((g3
g4
S'XPN_1'
((g3
g5
S'FN_1'
(tg7
g10
S'ST'
I50
Nt(g3
g5
S'FN_2'
(tg9
g10
S'ST'
I20
Nt(g3
g5
S'FN_3'
(tg9
g10
S'ST'
I50
Nt(g3
g5
S'FN_4'
(tg9
g10
S'ST'
I20
Nt(g3
g5
S'FN_5'
(tg9
g10
S'ST'
I50
Nttg9
g8
S'FN'
I194
Nt(g3
g5
S'XPN_2'
(tg9
g8
S'ST'
I30
Nt(g3
g5
S'XPN_3'
(tg9
g8
S'ST'
I30
Nt(g3
g5
S'XPN_4'
(tg9
g8
S'ST'
I20
Nt(g3
g5
S'XPN_5'
(tg9
g8
S'ST'
I20
Nt(g3
g5
S'XPN_6'
(tg9
g8
S'IS'
I6
S'HL70360'
t(g3
g5
S'XPN_7'
(tg9
g8
S'ID'
I1
S'HL70200'
t(g3
g5
S'XPN_8'
(tg9
g8
S'ID'
I1
S'HL70465'
t(g3
g4
S'XPN_9'
((g3
g5
S'CE_1'
(tg9
g10
S'ST'
I20
Nt(g3
g5
S'CE_2'
(tg9
g10
S'ST'
I199
Nt(g3
g5
S'CE_3'
(tg9
g10
S'ID'
I20
S'HL70396'
t(g3
g5
S'CE_4'
(tg9
g10
S'ST'
I20
Nt(g3
g5
S'CE_5'
(tg9
g10
S'ST'
I199
Nt(g3
g5
S'CE_6'
(tg9
g10
S'ID'
I20
S'HL70396'
ttg9
g8
S'CE'
I483
S'HL70448'
t(g3
g4
S'XPN_10'
((g3
g5
S'DR_1'
(tg9
g10
S'TS'
I26
Nt(g3
g5
S'DR_2'
(tg9
g10
S'TS'
I26
Nttg9
g8
S'DR'
I53
Nt(g3
g5
S'XPN_11'
(tg9
g8
S'ID'
I1
S'HL70444'
t(g3
g4
S'XPN_12'
((g3
g5
S'TS_1'
(tg7
g10
S'DTM'
I24
Nt(g3
g5
S'TS_2'
(tg9
g10
S'ST'
I1
S'HL70529'
ttg9
g8
S'TS'
I26
Nt(g3
g4
S'XPN_13'
((g3
g5
S'TS_1'
(tg7
g10
S'DTM'
I24
Nt(g3
g5
S'TS_2'
(tg9
g10
S'ST'
I1
S'HL70529'
ttg9
g8
S'TS'
I26
Nt(g3
g5
S'XPN_14'
(tg9
g8
S'ST'
I199
Ntt(I0
I-1
tg6
S'XPN'
I294
Nt(g3
g4
S'NK1_27'
((g3
g5
S'CE_1'
(tg9
g8
S'ST'
I20
Nt(g3
g5
S'CE_2'
(tg9
g8
S'ST'
I199
Nt(g3
g5
S'CE_3'
(tg9
g8
S'ID'
I20
S'HL70396'
t(g3
g5
S'CE_4'
(tg9
g8
S'ST'
I20
Nt(g3
g5
S'CE_5'
(tg9
g8
S'ST'
I199
Nt(g3
g5
S'CE_6'
(tg9
g8
S'ID'
I20
S'HL70396'
tt(I0
I1
tg6
S'CE'
I478
S'HL70212'
t(g3
g4
S'NK1_28'
((g3
g5
S'CE_1'
(tg9
g8
S'ST'
I20
Nt(g3
g5
S'CE_2'
(tg9
g8
S'ST'
I199
Nt(g3
g5
S'CE_3'
(tg9
g8
S'ID'
I20
S'HL70396'
t(g3
g5
S'CE_4'
(tg9
g8
S'ST'
I20
Nt(g3
g5
S'CE_5'
(tg9
g8
S'ST'
I199
Nt(g3
g5
S'CE_6'
(tg9
g8
S'ID'
I20
S'HL70396'
tt(I0
I1
tg6
S'CE'
I478
S'HL70189'
t(g3
g4
S'NK1_29'
((g3
g5
S'CE_1'
(tg9
g8
S'ST'
I20
Nt(g3
g5
S'CE_2'
(tg9
g8
S'ST'
I199
Nt(g3
g5
S'CE_3'
(tg9
g8
S'ID'
I20
S'HL70396'
t(g3
g5
S'CE_4'
(tg9
g8
S'ST'
I20
Nt(g3
g5
S'CE_5'
(tg9
g8
S'ST'
I199
Nt(g3
g5
S'CE_6'
(tg9
g8
S'ID'
I20
S'HL70396'
tt(I0
I1
tg6
S'CE'
I478
S'HL70222'
t(g3
g4
S'NK1_30'
((g3
g4
S'XPN_1'
((g3
g5
S'FN_1'
(tg7
g10
S'ST'
I50
Nt(g3
g5
S'FN_2'
(tg9
g10
S'ST'
I20
Nt(g3
g5
S'FN_3'
(tg9
g10
S'ST'
I50
Nt(g3
g5
S'FN_4'
(tg9
g10
S'ST'
I20
Nt(g3
g5
S'FN_5'
(tg9
g10
S'ST'
I50
Nttg9
g8
S'FN'
I194
Nt(g3
g5
S'XPN_2'
(tg9
g8
S'ST'
I30
Nt(g3
g5
S'XPN_3'
(tg9
g8
S'ST'
I30
Nt(g3
g5
S'XPN_4'
(tg9
g8
S'ST'
I20
Nt(g3
g5
S'XPN_5'
(tg9
g8
S'ST'
I20
Nt(g3
g5
S'XPN_6'
(tg9
g8
S'IS'
I6
S'HL70360'
t(g3
g5
S'XPN_7'
(tg9
g8
S'ID'
I1
S'HL70200'
t(g3
g5
S'XPN_8'
(tg9
g8
S'ID'
I1
S'HL70465'
t(g3
g4
S'XPN_9'
((g3
g5
S'CE_1'
(tg9
g10
S'ST'
I20
Nt(g3
g5
S'CE_2'
(tg9
g10
S'ST'
I199
Nt(g3
g5
S'CE_3'
(tg9
g10
S'ID'
I20
S'HL70396'
t(g3
g5
S'CE_4'
(tg9
g10
S'ST'
I20
Nt(g3
g5
S'CE_5'
(tg9
g10
S'ST'
I199
Nt(g3
g5
S'CE_6'
(tg9
g10
S'ID'
I20
S'HL70396'
ttg9
g8
S'CE'
I483
S'HL70448'
t(g3
g4
S'XPN_10'
((g3
g5
S'DR_1'
(tg9
g10
S'TS'
I26
Nt(g3
g5
S'DR_2'
(tg9
g10
S'TS'
I26
Nttg9
g8
S'DR'
I53
Nt(g3
g5
S'XPN_11'
(tg9
g8
S'ID'
I1
S'HL70444'
t(g3
g4
S'XPN_12'
((g3
g5
S'TS_1'
(tg7
g10
S'DTM'
I24
Nt(g3
g5
S'TS_2'
(tg9
g10
S'ST'
I1
S'HL70529'
ttg9
g8
S'TS'
I26
Nt(g3
g4
S'XPN_13'
((g3
g5
S'TS_1'
(tg7
g10
S'DTM'
I24
Nt(g3
g5
S'TS_2'
(tg9
g10
S'ST'
I1
S'HL70529'
ttg9
g8
S'TS'
I26
Nt(g3
g5
S'XPN_14'
(tg9
g8
S'ST'
I199
Ntt(I0
I-1
tg6
S'XPN'
I294
Nt(g3
g4
S'NK1_31'
((g3
g5
S'XTN_1'
(tg9
g8
S'ST'
I199
Nt(g3
g5
S'XTN_2'
(tg9
g8
S'ID'
I3
S'HL70201'
t(g3
g5
S'XTN_3'
(tg9
g8
S'ID'
I8
S'HL70202'
t(g3
g5
S'XTN_4'
(tg9
g8
S'ST'
I199
Nt(g3
g5
S'XTN_5'
(tg9
g8
S'NM'
I3
Nt(g3
g5
S'XTN_6'
(tg9
g8
S'NM'
I5
Nt(g3
g5
S'XTN_7'
(tg9
g8
S'NM'
I9
Nt(g3
g5
S'XTN_8'
(tg9
g8
S'NM'
I5
Nt(g3
g5
S'XTN_9'
(tg9
g8
S'ST'
I199
Nt(g3
g5
S'XTN_10'
(tg9
g8
S'ST'
I4
Nt(g3
g5
S'XTN_11'
(tg9
g8
S'ST'
I6
Nt(g3
g5
S'XTN_12'
(tg9
g8
S'ST'
I199
Ntt(I0
I1
tg6
S'XTN'
I250
Nt(g3
g4
S'NK1_32'
((g3
g4
S'XAD_1'
((g3
g5
S'SAD_1'
(tg9
g10
S'ST'
I120
Nt(g3
g5
S'SAD_2'
(tg9
g10
S'ST'
I50
Nt(g3
g5
S'SAD_3'
(tg9
g10
S'ST'
I12
Nttg9
g8
S'SAD'
I184
Nt(g3
g5
S'XAD_2'
(tg9
g8
S'ST'
I120
Nt(g3
g5
S'XAD_3'
(tg9
g8
S'ST'
I50
Nt(g3
g5
S'XAD_4'
(tg9
g8
S'ST'
I50
Nt(g3
g5
S'XAD_5'
(tg9
g8
S'ST'
I12
Nt(g3
g5
S'XAD_6'
(tg9
g8
S'ID'
I3
S'HL70399'
t(g3
g5
S'XAD_7'
(tg9
g8
S'ID'
I3
S'HL70190'
t(g3
g5
S'XAD_8'
(tg9
g8
S'ST'
I50
Nt(g3
g5
S'XAD_9'
(tg9
g8
S'IS'
I20
S'HL70289'
t(g3
g5
S'XAD_10'
(tg9
g8
S'IS'
I20
S'HL70288'
t(g3
g5
S'XAD_11'
(tg9
g8
S'ID'
I1
S'HL70465'
t(g3
g4
S'XAD_12'
((g3
g5
S'DR_1'
(tg9
g10
S'TS'
I26
Nt(g3
g5
S'DR_2'
(tg9
g10
S'TS'
I26
Nttg9
g8
S'DR'
I53
Nt(g3
g4
S'XAD_13'
((g3
g5
S'TS_1'
(tg7
g10
S'DTM'
I24
Nt(g3
g5
S'TS_2'
(tg9
g10
S'ST'
I1
S'HL70529'
ttg9
g8
S'TS'
I26
Nt(g3
g4
S'XAD_14'
((g3
g5
S'TS_1'
(tg7
g10
S'DTM'
I24
Nt(g3
g5
S'TS_2'
(tg9
g10
S'ST'
I1
S'HL70529'
ttg9
g8
S'TS'
I26
Ntt(I0
I-1
tg6
S'XAD'
I513
Nt(g3
g4
S'NK1_33'
((g3
g5
S'CX_1'
(tg7
g8
S'ST'
I15
Nt(g3
g5
S'CX_2'
(tg9
g8
S'ST'
I1
Nt(g3
g5
S'CX_3'
(tg9
g8
S'ID'
I3
S'HL70061'
t(g3
g4
S'CX_4'
((g3
g5
S'HD_1'
(tg7
g10
S'IS'
I20
S'HL70300'
t(g3
g5
S'HD_2'
(tg9
g10
S'ST'
I199
Nt(g3
g5
S'HD_3'
(tg9
g10
S'ID'
I6
S'HL70301'
ttg7
g8
S'HD'
I227
S'HL70363'
t(g3
g5
S'CX_5'
(tg9
g8
S'ID'
I5
S'HL70203'
t(g3
g4
S'CX_6'
((g3
g5
S'HD_1'
(tg9
g10
S'IS'
I20
S'HL70300'
t(g3
g5
S'HD_2'
(tg9
g10
S'ST'
I199
Nt(g3
g5
S'HD_3'
(tg9
g10
S'ID'
I6
S'HL70301'
ttg9
g8
S'HD'
I227
Nt(g3
g5
S'CX_7'
(tg9
g8
S'DT'
I8
Nt(g3
g5
S'CX_8'
(tg9
g8
S'DT'
I8
Nt(g3
g4
S'CX_9'
((g3
g5
S'CWE_1'
(tg9
g10
S'ST'
I20
Nt(g3
g5
S'CWE_2'
(tg9
g10
S'ST'
I199
Nt(g3
g5
S'CWE_3'
(tg9
g10
S'ID'
I20
S'HL70396'
t(g3
g5
S'CWE_4'
(tg9
g10
S'ST'
I20
Nt(g3
g5
S'CWE_5'
(tg9
g10
S'ST'
I199
Nt(g3
g5
S'CWE_6'
(tg9
g10
S'ID'
I20
S'HL70396'
t(g3
g5
S'CWE_7'
(tg9
g10
S'ST'
I10
Nt(g3
g5
S'CWE_8'
(tg9
g10
S'ST'
I10
Nt(g3
g5
S'CWE_9'
(tg9
g10
S'ST'
I199
Nttg9
g8
S'CWE'
I706
Nt(g3
g4
S'CX_10'
((g3
g5
S'CWE_1'
(tg9
g10
S'ST'
I20
Nt(g3
g5
S'CWE_2'
(tg9
g10
S'ST'
I199
Nt(g3
g5
S'CWE_3'
(tg9
g10
S'ID'
I20
S'HL70396'
t(g3
g5
S'CWE_4'
(tg9
g10
S'ST'
I20
Nt(g3
g5
S'CWE_5'
(tg9
g10
S'ST'
I199
Nt(g3
g5
S'CWE_6'
(tg9
g10
S'ID'
I20
S'HL70396'
t(g3
g5
S'CWE_7'
(tg9
g10
S'ST'
I10
Nt(g3
g5
S'CWE_8'
(tg9
g10
S'ST'
I10
Nt(g3
g5
S'CWE_9'
(tg9
g10
S'ST'
I199
Nttg9
g8
S'CWE'
I705
Ntt(I0
I-1
tg6
S'CX'
I1905
Nt(g3
g5
S'NK1_34'
(t(I0
I1
tg6
S'IS'
I2
S'HL70311'
t(g3
g4
S'NK1_35'
((g3
g5
S'CE_1'
(tg9
g8
S'ST'
I20
Nt(g3
g5
S'CE_2'
(tg9
g8
S'ST'
I199
Nt(g3
g5
S'CE_3'
(tg9
g8
S'ID'
I20
S'HL70396'
t(g3
g5
S'CE_4'
(tg9
g8
S'ST'
I20
Nt(g3
g5
S'CE_5'
(tg9
g8
S'ST'
I199
Nt(g3
g5
S'CE_6'
(tg9
g8
S'ID'
I20
S'HL70396'
tt(I0
I1
tg6
S'CE'
I478
S'HL70005'
t(g3
g5
S'NK1_36'
(t(I0
I1
tg6
S'IS'
I2
S'HL70295'
t(g3
g5
S'NK1_37'
(t(I0
I1
tg6
S'ST'
I16
Nt(g3
g5
S'NK1_38'
(t(I0
I1
tg6
S'ST'
I250
Nt(g3
g5
S'NK1_39'
(t(I0
I1
tg6
S'IS'
I2
S'HL70099'
tt(I0
I-1
tg11
t(g3
g4
S'QRI'
((g3
g5
S'QRI_1'
(t(I0
I1
tg6
S'NM'
I10
Nt(g3
g5
S'QRI_2'
(t(I0
I-1
tg6
S'IS'
I2
S'HL70392'
t(g3
g4
S'QRI_3'
((g3
g5
S'CE_1'
(tg9
g8
S'ST'
I20
Nt(g3
g5
S'CE_2'
(tg9
g8
S'ST'
I199
Nt(g3
g5
S'CE_3'
(tg9
g8
S'ID'
I20
S'HL70396'
t(g3
g5
S'CE_4'
(tg9
g8
S'ST'
I20
Nt(g3
g5
S'CE_5'
(tg9
g8
S'ST'
I199
Nt(g3
g5
S'CE_6'
(tg9
g8
S'ID'
I20
S'HL70396'
tt(I0
I1
tg6
S'CE'
I478
S'HL70393'
tt(I0
I1
tg11
tt(I0
I-1
tS'Group'
p12
t(g3
g4
S'DSC'
((g3
g5
S'DSC_1'
(t(I1
I1
tg6
S'ST'
I180
Nt(g3
g5
S'DSC_2'
(t(I0
I1
tg6
S'ID'
I1
S'HL70398'
tt(I0
I1
tg11
tttp13
s.